ARM GAS  /tmp/ccX30Dk5.s 			page 1


   1              		.cpu cortex-m3
   2              		.arch armv7-m
   3              		.fpu softvfp
   4              		.eabi_attribute 20, 1	@ Tag_ABI_FP_denormal
   5              		.eabi_attribute 21, 1	@ Tag_ABI_FP_exceptions
   6              		.eabi_attribute 23, 3	@ Tag_ABI_FP_number_model
   7              		.eabi_attribute 24, 1	@ Tag_ABI_align8_needed
   8              		.eabi_attribute 25, 1	@ Tag_ABI_align8_preserved
   9              		.eabi_attribute 26, 1	@ Tag_ABI_enum_size
  10              		.eabi_attribute 30, 6	@ Tag_ABI_optimization_goals
  11              		.eabi_attribute 34, 1	@ Tag_CPU_unaligned_access
  12              		.eabi_attribute 18, 4	@ Tag_ABI_PCS_wchar_t
  13              		.file	"heap_5.c"
  14              	@ GNU C17 (GNU Arm Embedded Toolchain 10.3-2021.10) version 10.3.1 20210824 (release) (arm-none-eab
  15              	@	compiled by GNU C version 4.8.4, GMP version 6.1.0, MPFR version 3.1.4, MPC version 1.0.3, isl ve
  16              	
  17              	@ GGC heuristics: --param ggc-min-expand=100 --param ggc-min-heapsize=131072
  18              	@ options passed:  -I . -I ./Source -I ./Libraries/CMSIS
  19              	@ -I ./Libraries/CMSIS/GD/GD32F10x/Source
  20              	@ -I ./Libraries/GD32F10x_standard_peripheral/Include
  21              	@ -I ./Libraries/GD32F10x_standard_peripheral -I ./Source/FreeRTOS/include
  22              	@ -I ./Source/FreeRTOS/portable/GCC/ARM_CM3 -imultilib thumb/v7-m/nofp
  23              	@ -iprefix /home/hpf/Compile_chain/gcc-arm-none-eabi-10.3-2021.10/bin/../lib/gcc/arm-none-eabi/10.3
  24              	@ -isysroot /home/hpf/Compile_chain/gcc-arm-none-eabi-10.3-2021.10/bin/../arm-none-eabi
  25              	@ -D__USES_INITFINI__ -D GD32F10X_HD -D USE_STDPERIPH_DRIVER
  26              	@ -D RUN_FROM_FLASH=1 Source/FreeRTOS/portable/MemMang/heap_5.c
  27              	@ -mcpu=cortex-m3 -mthumb -mfloat-abi=soft -mlibarch=armv7-m -march=armv7-m
  28              	@ -auxbase-strip Source/FreeRTOS/portable/MemMang/heap_5.o -g -gdwarf-2 -O0
  29              	@ -Wall -fomit-frame-pointer -fverbose-asm
  30              	@ options enabled:  -faggressive-loop-optimizations -fallocation-dce
  31              	@ -fauto-inc-dec -fdelete-null-pointer-checks -fdwarf2-cfi-asm
  32              	@ -fearly-inlining -feliminate-unused-debug-symbols
  33              	@ -feliminate-unused-debug-types -ffp-int-builtin-inexact -ffunction-cse
  34              	@ -fgcse-lm -fgnu-unique -fident -finline-atomics -fipa-stack-alignment
  35              	@ -fira-hoist-pressure -fira-share-save-slots -fira-share-spill-slots
  36              	@ -fivopts -fkeep-static-consts -fleading-underscore -flifetime-dse
  37              	@ -fmath-errno -fmerge-debug-strings -fomit-frame-pointer -fpeephole -fplt
  38              	@ -fprefetch-loop-arrays -freg-struct-return
  39              	@ -fsched-critical-path-heuristic -fsched-dep-count-heuristic
  40              	@ -fsched-group-heuristic -fsched-interblock -fsched-last-insn-heuristic
  41              	@ -fsched-rank-heuristic -fsched-spec -fsched-spec-insn-heuristic
  42              	@ -fsched-stalled-insns-dep -fsemantic-interposition -fshow-column
  43              	@ -fshrink-wrap-separate -fsigned-zeros -fsplit-ivs-in-unroller
  44              	@ -fssa-backprop -fstdarg-opt -fstrict-volatile-bitfields -fsync-libcalls
  45              	@ -ftrapping-math -ftree-cselim -ftree-forwprop -ftree-loop-if-convert
  46              	@ -ftree-loop-im -ftree-loop-ivcanon -ftree-loop-optimize
  47              	@ -ftree-parallelize-loops= -ftree-phiprop -ftree-reassoc -ftree-scev-cprop
  48              	@ -funit-at-a-time -fverbose-asm -fzero-initialized-in-bss
  49              	@ -masm-syntax-unified -mbe32 -mfix-cortex-m3-ldrd -mlittle-endian
  50              	@ -mpic-data-is-text-relative -msched-prolog -mthumb -munaligned-access
  51              	@ -mvectorize-with-neon-quad
  52              	
  53              		.text
  54              	.Ltext0:
  55              		.cfi_sections	.debug_frame
  56              		.section	.rodata
  57              		.align	2
ARM GAS  /tmp/ccX30Dk5.s 			page 2


  58              		.type	xHeapStructSize, %object
  59              		.size	xHeapStructSize, 4
  60              	xHeapStructSize:
  61 0000 08000000 		.word	8
  62              		.bss
  63              		.align	2
  64              	xStart:
  65 0000 00000000 		.space	8
  65      00000000 
  66              		.size	xStart, 8
  67              		.align	2
  68              	pxEnd:
  69 0008 00000000 		.space	4
  70              		.size	pxEnd, 4
  71              		.align	2
  72              	xFreeBytesRemaining:
  73 000c 00000000 		.space	4
  74              		.size	xFreeBytesRemaining, 4
  75              		.align	2
  76              	xMinimumEverFreeBytesRemaining:
  77 0010 00000000 		.space	4
  78              		.size	xMinimumEverFreeBytesRemaining, 4
  79              		.align	2
  80              	xNumberOfSuccessfulAllocations:
  81 0014 00000000 		.space	4
  82              		.size	xNumberOfSuccessfulAllocations, 4
  83              		.align	2
  84              	xNumberOfSuccessfulFrees:
  85 0018 00000000 		.space	4
  86              		.size	xNumberOfSuccessfulFrees, 4
  87              		.align	2
  88              	xBlockAllocatedBit:
  89 001c 00000000 		.space	4
  90              		.size	xBlockAllocatedBit, 4
  91              		.section	.rodata
  92              		.align	2
  93              	.LC0:
  94 0004 536F7572 		.ascii	"Source/FreeRTOS/portable/MemMang/heap_5.c\000"
  94      63652F46 
  94      72656552 
  94      544F532F 
  94      706F7274 
  95 002e 0000     		.align	2
  96              	.LC1:
  97 0030 4572726F 		.ascii	"Error:%s,%d\015\012\000"
  97      723A2573 
  97      2C25640D 
  97      0A00
  98              		.text
  99              		.align	1
 100              		.global	pvPortMalloc
 101              		.syntax unified
 102              		.thumb
 103              		.thumb_func
 104              		.type	pvPortMalloc, %function
 105              	pvPortMalloc:
 106              	.LFB5:
ARM GAS  /tmp/ccX30Dk5.s 			page 3


 107              		.file 1 "Source/FreeRTOS/portable/MemMang/heap_5.c"
   1:Source/FreeRTOS/portable/MemMang/heap_5.c **** /*
   2:Source/FreeRTOS/portable/MemMang/heap_5.c ****  * FreeRTOS Kernel V10.4.4
   3:Source/FreeRTOS/portable/MemMang/heap_5.c ****  * Copyright (C) 2021 Amazon.com, Inc. or its affiliates.  All Rights Reserved.
   4:Source/FreeRTOS/portable/MemMang/heap_5.c ****  *
   5:Source/FreeRTOS/portable/MemMang/heap_5.c ****  * SPDX-License-Identifier: MIT
   6:Source/FreeRTOS/portable/MemMang/heap_5.c ****  *
   7:Source/FreeRTOS/portable/MemMang/heap_5.c ****  * Permission is hereby granted, free of charge, to any person obtaining a copy of
   8:Source/FreeRTOS/portable/MemMang/heap_5.c ****  * this software and associated documentation files (the "Software"), to deal in
   9:Source/FreeRTOS/portable/MemMang/heap_5.c ****  * the Software without restriction, including without limitation the rights to
  10:Source/FreeRTOS/portable/MemMang/heap_5.c ****  * use, copy, modify, merge, publish, distribute, sublicense, and/or sell copies of
  11:Source/FreeRTOS/portable/MemMang/heap_5.c ****  * the Software, and to permit persons to whom the Software is furnished to do so,
  12:Source/FreeRTOS/portable/MemMang/heap_5.c ****  * subject to the following conditions:
  13:Source/FreeRTOS/portable/MemMang/heap_5.c ****  *
  14:Source/FreeRTOS/portable/MemMang/heap_5.c ****  * The above copyright notice and this permission notice shall be included in all
  15:Source/FreeRTOS/portable/MemMang/heap_5.c ****  * copies or substantial portions of the Software.
  16:Source/FreeRTOS/portable/MemMang/heap_5.c ****  *
  17:Source/FreeRTOS/portable/MemMang/heap_5.c ****  * THE SOFTWARE IS PROVIDED "AS IS", WITHOUT WARRANTY OF ANY KIND, EXPRESS OR
  18:Source/FreeRTOS/portable/MemMang/heap_5.c ****  * IMPLIED, INCLUDING BUT NOT LIMITED TO THE WARRANTIES OF MERCHANTABILITY, FITNESS
  19:Source/FreeRTOS/portable/MemMang/heap_5.c ****  * FOR A PARTICULAR PURPOSE AND NONINFRINGEMENT. IN NO EVENT SHALL THE AUTHORS OR
  20:Source/FreeRTOS/portable/MemMang/heap_5.c ****  * COPYRIGHT HOLDERS BE LIABLE FOR ANY CLAIM, DAMAGES OR OTHER LIABILITY, WHETHER
  21:Source/FreeRTOS/portable/MemMang/heap_5.c ****  * IN AN ACTION OF CONTRACT, TORT OR OTHERWISE, ARISING FROM, OUT OF OR IN
  22:Source/FreeRTOS/portable/MemMang/heap_5.c ****  * CONNECTION WITH THE SOFTWARE OR THE USE OR OTHER DEALINGS IN THE SOFTWARE.
  23:Source/FreeRTOS/portable/MemMang/heap_5.c ****  *
  24:Source/FreeRTOS/portable/MemMang/heap_5.c ****  * https://www.FreeRTOS.org
  25:Source/FreeRTOS/portable/MemMang/heap_5.c ****  * https://github.com/FreeRTOS
  26:Source/FreeRTOS/portable/MemMang/heap_5.c ****  *
  27:Source/FreeRTOS/portable/MemMang/heap_5.c ****  */
  28:Source/FreeRTOS/portable/MemMang/heap_5.c **** 
  29:Source/FreeRTOS/portable/MemMang/heap_5.c **** /*
  30:Source/FreeRTOS/portable/MemMang/heap_5.c ****  * A sample implementation of pvPortMalloc() that allows the heap to be defined
  31:Source/FreeRTOS/portable/MemMang/heap_5.c ****  * across multiple non-contigous blocks and combines (coalescences) adjacent
  32:Source/FreeRTOS/portable/MemMang/heap_5.c ****  * memory blocks as they are freed.
  33:Source/FreeRTOS/portable/MemMang/heap_5.c ****  *
  34:Source/FreeRTOS/portable/MemMang/heap_5.c ****  * See heap_1.c, heap_2.c, heap_3.c and heap_4.c for alternative
  35:Source/FreeRTOS/portable/MemMang/heap_5.c ****  * implementations, and the memory management pages of https://www.FreeRTOS.org
  36:Source/FreeRTOS/portable/MemMang/heap_5.c ****  * for more information.
  37:Source/FreeRTOS/portable/MemMang/heap_5.c ****  *
  38:Source/FreeRTOS/portable/MemMang/heap_5.c ****  * Usage notes:
  39:Source/FreeRTOS/portable/MemMang/heap_5.c ****  *
  40:Source/FreeRTOS/portable/MemMang/heap_5.c ****  * vPortDefineHeapRegions() ***must*** be called before pvPortMalloc().
  41:Source/FreeRTOS/portable/MemMang/heap_5.c ****  * pvPortMalloc() will be called if any task objects (tasks, queues, event
  42:Source/FreeRTOS/portable/MemMang/heap_5.c ****  * groups, etc.) are created, therefore vPortDefineHeapRegions() ***must*** be
  43:Source/FreeRTOS/portable/MemMang/heap_5.c ****  * called before any other objects are defined.
  44:Source/FreeRTOS/portable/MemMang/heap_5.c ****  *
  45:Source/FreeRTOS/portable/MemMang/heap_5.c ****  * vPortDefineHeapRegions() takes a single parameter.  The parameter is an array
  46:Source/FreeRTOS/portable/MemMang/heap_5.c ****  * of HeapRegion_t structures.  HeapRegion_t is defined in portable.h as
  47:Source/FreeRTOS/portable/MemMang/heap_5.c ****  *
  48:Source/FreeRTOS/portable/MemMang/heap_5.c ****  * typedef struct HeapRegion
  49:Source/FreeRTOS/portable/MemMang/heap_5.c ****  * {
  50:Source/FreeRTOS/portable/MemMang/heap_5.c ****  *  uint8_t *pucStartAddress; << Start address of a block of memory that will be part of the heap.
  51:Source/FreeRTOS/portable/MemMang/heap_5.c ****  *  size_t xSizeInBytes;      << Size of the block of memory.
  52:Source/FreeRTOS/portable/MemMang/heap_5.c ****  * } HeapRegion_t;
  53:Source/FreeRTOS/portable/MemMang/heap_5.c ****  *
  54:Source/FreeRTOS/portable/MemMang/heap_5.c ****  * The array is terminated using a NULL zero sized region definition, and the
  55:Source/FreeRTOS/portable/MemMang/heap_5.c ****  * memory regions defined in the array ***must*** appear in address order from
  56:Source/FreeRTOS/portable/MemMang/heap_5.c ****  * low address to high address.  So the following is a valid example of how
ARM GAS  /tmp/ccX30Dk5.s 			page 4


  57:Source/FreeRTOS/portable/MemMang/heap_5.c ****  * to use the function.
  58:Source/FreeRTOS/portable/MemMang/heap_5.c ****  *
  59:Source/FreeRTOS/portable/MemMang/heap_5.c ****  * HeapRegion_t xHeapRegions[] =
  60:Source/FreeRTOS/portable/MemMang/heap_5.c ****  * {
  61:Source/FreeRTOS/portable/MemMang/heap_5.c ****  *  { ( uint8_t * ) 0x80000000UL, 0x10000 }, << Defines a block of 0x10000 bytes starting at addres
  62:Source/FreeRTOS/portable/MemMang/heap_5.c ****  *  { ( uint8_t * ) 0x90000000UL, 0xa0000 }, << Defines a block of 0xa0000 bytes starting at addres
  63:Source/FreeRTOS/portable/MemMang/heap_5.c ****  *  { NULL, 0 }                << Terminates the array.
  64:Source/FreeRTOS/portable/MemMang/heap_5.c ****  * };
  65:Source/FreeRTOS/portable/MemMang/heap_5.c ****  *
  66:Source/FreeRTOS/portable/MemMang/heap_5.c ****  * vPortDefineHeapRegions( xHeapRegions ); << Pass the array into vPortDefineHeapRegions().
  67:Source/FreeRTOS/portable/MemMang/heap_5.c ****  *
  68:Source/FreeRTOS/portable/MemMang/heap_5.c ****  * Note 0x80000000 is the lower address so appears in the array first.
  69:Source/FreeRTOS/portable/MemMang/heap_5.c ****  *
  70:Source/FreeRTOS/portable/MemMang/heap_5.c ****  */
  71:Source/FreeRTOS/portable/MemMang/heap_5.c **** #include <stdlib.h>
  72:Source/FreeRTOS/portable/MemMang/heap_5.c **** 
  73:Source/FreeRTOS/portable/MemMang/heap_5.c **** /* Defining MPU_WRAPPERS_INCLUDED_FROM_API_FILE prevents task.h from redefining
  74:Source/FreeRTOS/portable/MemMang/heap_5.c ****  * all the API functions to use the MPU wrappers.  That should only be done when
  75:Source/FreeRTOS/portable/MemMang/heap_5.c ****  * task.h is included from an application file. */
  76:Source/FreeRTOS/portable/MemMang/heap_5.c **** #define MPU_WRAPPERS_INCLUDED_FROM_API_FILE
  77:Source/FreeRTOS/portable/MemMang/heap_5.c **** 
  78:Source/FreeRTOS/portable/MemMang/heap_5.c **** #include "FreeRTOS.h"
  79:Source/FreeRTOS/portable/MemMang/heap_5.c **** #include "task.h"
  80:Source/FreeRTOS/portable/MemMang/heap_5.c **** 
  81:Source/FreeRTOS/portable/MemMang/heap_5.c **** #undef MPU_WRAPPERS_INCLUDED_FROM_API_FILE
  82:Source/FreeRTOS/portable/MemMang/heap_5.c **** 
  83:Source/FreeRTOS/portable/MemMang/heap_5.c **** #if ( configSUPPORT_DYNAMIC_ALLOCATION == 0 )
  84:Source/FreeRTOS/portable/MemMang/heap_5.c ****     #error This file must not be used if configSUPPORT_DYNAMIC_ALLOCATION is 0
  85:Source/FreeRTOS/portable/MemMang/heap_5.c **** #endif
  86:Source/FreeRTOS/portable/MemMang/heap_5.c **** 
  87:Source/FreeRTOS/portable/MemMang/heap_5.c **** /* Block sizes must not get too small. */
  88:Source/FreeRTOS/portable/MemMang/heap_5.c **** #define heapMINIMUM_BLOCK_SIZE    ( ( size_t ) ( xHeapStructSize << 1 ) )
  89:Source/FreeRTOS/portable/MemMang/heap_5.c **** 
  90:Source/FreeRTOS/portable/MemMang/heap_5.c **** /* Assumes 8bit bytes! */
  91:Source/FreeRTOS/portable/MemMang/heap_5.c **** #define heapBITS_PER_BYTE         ( ( size_t ) 8 )
  92:Source/FreeRTOS/portable/MemMang/heap_5.c **** 
  93:Source/FreeRTOS/portable/MemMang/heap_5.c **** /* Define the linked list structure.  This is used to link free blocks in order
  94:Source/FreeRTOS/portable/MemMang/heap_5.c ****  * of their memory address. */
  95:Source/FreeRTOS/portable/MemMang/heap_5.c **** typedef struct A_BLOCK_LINK
  96:Source/FreeRTOS/portable/MemMang/heap_5.c **** {
  97:Source/FreeRTOS/portable/MemMang/heap_5.c ****     struct A_BLOCK_LINK * pxNextFreeBlock; /*<< The next free block in the list. */
  98:Source/FreeRTOS/portable/MemMang/heap_5.c ****     size_t xBlockSize;                     /*<< The size of the free block. */
  99:Source/FreeRTOS/portable/MemMang/heap_5.c **** } BlockLink_t;
 100:Source/FreeRTOS/portable/MemMang/heap_5.c **** 
 101:Source/FreeRTOS/portable/MemMang/heap_5.c **** /*-----------------------------------------------------------*/
 102:Source/FreeRTOS/portable/MemMang/heap_5.c **** 
 103:Source/FreeRTOS/portable/MemMang/heap_5.c **** /*
 104:Source/FreeRTOS/portable/MemMang/heap_5.c ****  * Inserts a block of memory that is being freed into the correct position in
 105:Source/FreeRTOS/portable/MemMang/heap_5.c ****  * the list of free memory blocks.  The block being freed will be merged with
 106:Source/FreeRTOS/portable/MemMang/heap_5.c ****  * the block in front it and/or the block behind it if the memory blocks are
 107:Source/FreeRTOS/portable/MemMang/heap_5.c ****  * adjacent to each other.
 108:Source/FreeRTOS/portable/MemMang/heap_5.c ****  */
 109:Source/FreeRTOS/portable/MemMang/heap_5.c **** static void prvInsertBlockIntoFreeList( BlockLink_t * pxBlockToInsert );
 110:Source/FreeRTOS/portable/MemMang/heap_5.c **** 
 111:Source/FreeRTOS/portable/MemMang/heap_5.c **** /*-----------------------------------------------------------*/
 112:Source/FreeRTOS/portable/MemMang/heap_5.c **** 
 113:Source/FreeRTOS/portable/MemMang/heap_5.c **** /* The size of the structure placed at the beginning of each allocated memory
ARM GAS  /tmp/ccX30Dk5.s 			page 5


 114:Source/FreeRTOS/portable/MemMang/heap_5.c ****  * block must by correctly byte aligned. */
 115:Source/FreeRTOS/portable/MemMang/heap_5.c **** static const size_t xHeapStructSize = ( sizeof( BlockLink_t ) + ( ( size_t ) ( portBYTE_ALIGNMENT -
 116:Source/FreeRTOS/portable/MemMang/heap_5.c **** 
 117:Source/FreeRTOS/portable/MemMang/heap_5.c **** /* Create a couple of list links to mark the start and end of the list. */
 118:Source/FreeRTOS/portable/MemMang/heap_5.c **** static BlockLink_t xStart, * pxEnd = NULL;
 119:Source/FreeRTOS/portable/MemMang/heap_5.c **** 
 120:Source/FreeRTOS/portable/MemMang/heap_5.c **** /* Keeps track of the number of calls to allocate and free memory as well as the
 121:Source/FreeRTOS/portable/MemMang/heap_5.c ****  * number of free bytes remaining, but says nothing about fragmentation. */
 122:Source/FreeRTOS/portable/MemMang/heap_5.c **** static size_t xFreeBytesRemaining = 0U;
 123:Source/FreeRTOS/portable/MemMang/heap_5.c **** static size_t xMinimumEverFreeBytesRemaining = 0U;
 124:Source/FreeRTOS/portable/MemMang/heap_5.c **** static size_t xNumberOfSuccessfulAllocations = 0;
 125:Source/FreeRTOS/portable/MemMang/heap_5.c **** static size_t xNumberOfSuccessfulFrees = 0;
 126:Source/FreeRTOS/portable/MemMang/heap_5.c **** 
 127:Source/FreeRTOS/portable/MemMang/heap_5.c **** /* Gets set to the top bit of an size_t type.  When this bit in the xBlockSize
 128:Source/FreeRTOS/portable/MemMang/heap_5.c ****  * member of an BlockLink_t structure is set then the block belongs to the
 129:Source/FreeRTOS/portable/MemMang/heap_5.c ****  * application.  When the bit is free the block is still part of the free heap
 130:Source/FreeRTOS/portable/MemMang/heap_5.c ****  * space. */
 131:Source/FreeRTOS/portable/MemMang/heap_5.c **** static size_t xBlockAllocatedBit = 0;
 132:Source/FreeRTOS/portable/MemMang/heap_5.c **** 
 133:Source/FreeRTOS/portable/MemMang/heap_5.c **** /*-----------------------------------------------------------*/
 134:Source/FreeRTOS/portable/MemMang/heap_5.c **** 
 135:Source/FreeRTOS/portable/MemMang/heap_5.c **** void * pvPortMalloc( size_t xWantedSize )
 136:Source/FreeRTOS/portable/MemMang/heap_5.c **** {
 108              		.loc 1 136 1
 109              		.cfi_startproc
 110              		@ args = 0, pretend = 0, frame = 24
 111              		@ frame_needed = 0, uses_anonymous_args = 0
 112 0000 00B5     		push	{lr}	@
 113              	.LCFI0:
 114              		.cfi_def_cfa_offset 4
 115              		.cfi_offset 14, -4
 116 0002 87B0     		sub	sp, sp, #28	@,,
 117              	.LCFI1:
 118              		.cfi_def_cfa_offset 32
 119 0004 0190     		str	r0, [sp, #4]	@ xWantedSize, xWantedSize
 120              	@ Source/FreeRTOS/portable/MemMang/heap_5.c:138:     void * pvReturn = NULL;
 137:Source/FreeRTOS/portable/MemMang/heap_5.c ****     BlockLink_t * pxBlock, * pxPreviousBlock, * pxNewBlockLink;
 138:Source/FreeRTOS/portable/MemMang/heap_5.c ****     void * pvReturn = NULL;
 121              		.loc 1 138 12
 122 0006 0023     		movs	r3, #0	@ tmp149,
 123 0008 0393     		str	r3, [sp, #12]	@ tmp149, pvReturn
 124              	@ Source/FreeRTOS/portable/MemMang/heap_5.c:142:     configASSERT( pxEnd );
 139:Source/FreeRTOS/portable/MemMang/heap_5.c **** 
 140:Source/FreeRTOS/portable/MemMang/heap_5.c ****     /* The heap must be initialised before the first call to
 141:Source/FreeRTOS/portable/MemMang/heap_5.c ****      * prvPortMalloc(). */
 142:Source/FreeRTOS/portable/MemMang/heap_5.c ****     configASSERT( pxEnd );
 125              		.loc 1 142 5
 126 000a 4F4B     		ldr	r3, .L14	@ tmp150,
 127 000c 1B68     		ldr	r3, [r3]	@ pxEnd.0_1, pxEnd
 128 000e 002B     		cmp	r3, #0	@ pxEnd.0_1,
 129 0010 04D1     		bne	.L2		@,
 130              	.LBB2:
 131              	@ Source/FreeRTOS/portable/MemMang/heap_5.c:142:     configASSERT( pxEnd );
 132              		.loc 1 142 5 is_stmt 0 discriminator 1
 133 0012 8E22     		movs	r2, #142	@,
 134 0014 4D49     		ldr	r1, .L14+4	@,
 135 0016 4E48     		ldr	r0, .L14+8	@,
ARM GAS  /tmp/ccX30Dk5.s 			page 6


 136 0018 FFF7FEFF 		bl	printf		@
 137              	.L2:
 138              	.LBE2:
 139              	@ Source/FreeRTOS/portable/MemMang/heap_5.c:144:     vTaskSuspendAll();
 143:Source/FreeRTOS/portable/MemMang/heap_5.c **** 
 144:Source/FreeRTOS/portable/MemMang/heap_5.c ****     vTaskSuspendAll();
 140              		.loc 1 144 5 is_stmt 1
 141 001c FFF7FEFF 		bl	vTaskSuspendAll		@
 142              	@ Source/FreeRTOS/portable/MemMang/heap_5.c:150:         if( ( xWantedSize & xBlockAllocatedBit ) =
 145:Source/FreeRTOS/portable/MemMang/heap_5.c ****     {
 146:Source/FreeRTOS/portable/MemMang/heap_5.c ****         /* Check the requested block size is not so large that the top bit is
 147:Source/FreeRTOS/portable/MemMang/heap_5.c ****          * set.  The top bit of the block size member of the BlockLink_t structure
 148:Source/FreeRTOS/portable/MemMang/heap_5.c ****          * is used to determine who owns the block - the application or the
 149:Source/FreeRTOS/portable/MemMang/heap_5.c ****          * kernel, so it must be free. */
 150:Source/FreeRTOS/portable/MemMang/heap_5.c ****         if( ( xWantedSize & xBlockAllocatedBit ) == 0 )
 143              		.loc 1 150 27
 144 0020 4C4B     		ldr	r3, .L14+12	@ tmp151,
 145 0022 1A68     		ldr	r2, [r3]	@ xBlockAllocatedBit.1_2, xBlockAllocatedBit
 146 0024 019B     		ldr	r3, [sp, #4]	@ tmp152, xWantedSize
 147 0026 1340     		ands	r3, r3, r2	@, _3, tmp152, xBlockAllocatedBit.1_2
 148              	@ Source/FreeRTOS/portable/MemMang/heap_5.c:150:         if( ( xWantedSize & xBlockAllocatedBit ) =
 149              		.loc 1 150 11
 150 0028 002B     		cmp	r3, #0	@ _3,
 151 002a 40F08680 		bne	.L3		@,
 152              	@ Source/FreeRTOS/portable/MemMang/heap_5.c:154:             if( ( xWantedSize > 0 ) &&
 151:Source/FreeRTOS/portable/MemMang/heap_5.c ****         {
 152:Source/FreeRTOS/portable/MemMang/heap_5.c ****             /* The wanted size is increased so it can contain a BlockLink_t
 153:Source/FreeRTOS/portable/MemMang/heap_5.c ****              * structure in addition to the requested amount of bytes. */
 154:Source/FreeRTOS/portable/MemMang/heap_5.c ****             if( ( xWantedSize > 0 ) &&
 153              		.loc 1 154 15
 154 002e 019B     		ldr	r3, [sp, #4]	@ tmp153, xWantedSize
 155 0030 002B     		cmp	r3, #0	@ tmp153,
 156 0032 1ED0     		beq	.L4		@,
 157              	@ Source/FreeRTOS/portable/MemMang/heap_5.c:155:                 ( ( xWantedSize + xHeapStructSize 
 155:Source/FreeRTOS/portable/MemMang/heap_5.c ****                 ( ( xWantedSize + xHeapStructSize ) >  xWantedSize ) ) /* Overflow check */
 158              		.loc 1 155 33 discriminator 1
 159 0034 0822     		movs	r2, #8	@ xHeapStructSize.2_4,
 160 0036 019B     		ldr	r3, [sp, #4]	@ tmp154, xWantedSize
 161 0038 1344     		add	r3, r3, r2	@ _5, xHeapStructSize.2_4
 162              	@ Source/FreeRTOS/portable/MemMang/heap_5.c:154:             if( ( xWantedSize > 0 ) &&
 154:Source/FreeRTOS/portable/MemMang/heap_5.c ****                 ( ( xWantedSize + xHeapStructSize ) >  xWantedSize ) ) /* Overflow check */
 163              		.loc 1 154 37 discriminator 1
 164 003a 019A     		ldr	r2, [sp, #4]	@ tmp155, xWantedSize
 165 003c 9A42     		cmp	r2, r3	@ tmp155, _5
 166 003e 18D2     		bcs	.L4		@,
 167              	@ Source/FreeRTOS/portable/MemMang/heap_5.c:157:                 xWantedSize += xHeapStructSize;
 156:Source/FreeRTOS/portable/MemMang/heap_5.c ****             {
 157:Source/FreeRTOS/portable/MemMang/heap_5.c ****                 xWantedSize += xHeapStructSize;
 168              		.loc 1 157 29
 169 0040 0822     		movs	r2, #8	@ xHeapStructSize.3_6,
 170 0042 019B     		ldr	r3, [sp, #4]	@ tmp157, xWantedSize
 171 0044 1344     		add	r3, r3, r2	@ tmp156, xHeapStructSize.3_6
 172 0046 0193     		str	r3, [sp, #4]	@ tmp156, xWantedSize
 173              	@ Source/FreeRTOS/portable/MemMang/heap_5.c:160:                 if( ( xWantedSize & portBYTE_ALIGN
 158:Source/FreeRTOS/portable/MemMang/heap_5.c **** 
 159:Source/FreeRTOS/portable/MemMang/heap_5.c ****                 /* Ensure that blocks are always aligned */
 160:Source/FreeRTOS/portable/MemMang/heap_5.c ****                 if( ( xWantedSize & portBYTE_ALIGNMENT_MASK ) != 0x00 )
ARM GAS  /tmp/ccX30Dk5.s 			page 7


 174              		.loc 1 160 35
 175 0048 019B     		ldr	r3, [sp, #4]	@ tmp158, xWantedSize
 176 004a 03F00703 		and	r3, r3, #7	@ _7, tmp158,
 177              	@ Source/FreeRTOS/portable/MemMang/heap_5.c:160:                 if( ( xWantedSize & portBYTE_ALIGN
 178              		.loc 1 160 19
 179 004e 002B     		cmp	r3, #0	@ _7,
 180 0050 11D0     		beq	.L7		@,
 181              	@ Source/FreeRTOS/portable/MemMang/heap_5.c:163:                     if( ( xWantedSize + ( portBYTE
 161:Source/FreeRTOS/portable/MemMang/heap_5.c ****                 {
 162:Source/FreeRTOS/portable/MemMang/heap_5.c ****                     /* Byte alignment required. Check for overflow */
 163:Source/FreeRTOS/portable/MemMang/heap_5.c ****                     if( ( xWantedSize + ( portBYTE_ALIGNMENT - ( xWantedSize & portBYTE_ALIGNMENT_M
 182              		.loc 1 163 39
 183 0052 019B     		ldr	r3, [sp, #4]	@ tmp159, xWantedSize
 184 0054 23F00703 		bic	r3, r3, #7	@ _8, tmp159,
 185 0058 0833     		adds	r3, r3, #8	@ _9, _8,
 186              	@ Source/FreeRTOS/portable/MemMang/heap_5.c:163:                     if( ( xWantedSize + ( portBYTE
 187              		.loc 1 163 23
 188 005a 019A     		ldr	r2, [sp, #4]	@ tmp160, xWantedSize
 189 005c 9A42     		cmp	r2, r3	@ tmp160, _9
 190 005e 05D2     		bcs	.L6		@,
 191              	@ Source/FreeRTOS/portable/MemMang/heap_5.c:166:                         xWantedSize += ( portBYTE_
 164:Source/FreeRTOS/portable/MemMang/heap_5.c ****                          xWantedSize )
 165:Source/FreeRTOS/portable/MemMang/heap_5.c ****                     {
 166:Source/FreeRTOS/portable/MemMang/heap_5.c ****                         xWantedSize += ( portBYTE_ALIGNMENT - ( xWantedSize & portBYTE_ALIGNMENT_MA
 192              		.loc 1 166 37
 193 0060 019B     		ldr	r3, [sp, #4]	@ tmp161, xWantedSize
 194 0062 23F00703 		bic	r3, r3, #7	@ _10, tmp161,
 195 0066 0833     		adds	r3, r3, #8	@ tmp162, _10,
 196 0068 0193     		str	r3, [sp, #4]	@ tmp162, xWantedSize
 197              	@ Source/FreeRTOS/portable/MemMang/heap_5.c:160:                 if( ( xWantedSize & portBYTE_ALIGN
 160:Source/FreeRTOS/portable/MemMang/heap_5.c ****                 {
 198              		.loc 1 160 19
 199 006a 04E0     		b	.L7		@
 200              	.L6:
 201              	@ Source/FreeRTOS/portable/MemMang/heap_5.c:170:                         xWantedSize = 0;
 167:Source/FreeRTOS/portable/MemMang/heap_5.c ****                     }
 168:Source/FreeRTOS/portable/MemMang/heap_5.c ****                     else
 169:Source/FreeRTOS/portable/MemMang/heap_5.c ****                     {
 170:Source/FreeRTOS/portable/MemMang/heap_5.c ****                         xWantedSize = 0;
 202              		.loc 1 170 37
 203 006c 0023     		movs	r3, #0	@ tmp163,
 204 006e 0193     		str	r3, [sp, #4]	@ tmp163, xWantedSize
 205              	@ Source/FreeRTOS/portable/MemMang/heap_5.c:160:                 if( ( xWantedSize & portBYTE_ALIGN
 160:Source/FreeRTOS/portable/MemMang/heap_5.c ****                 {
 206              		.loc 1 160 19
 207 0070 01E0     		b	.L7		@
 208              	.L4:
 209              	@ Source/FreeRTOS/portable/MemMang/heap_5.c:180:                 xWantedSize = 0;
 171:Source/FreeRTOS/portable/MemMang/heap_5.c ****                     }
 172:Source/FreeRTOS/portable/MemMang/heap_5.c ****                 }
 173:Source/FreeRTOS/portable/MemMang/heap_5.c ****                 else
 174:Source/FreeRTOS/portable/MemMang/heap_5.c ****                 {
 175:Source/FreeRTOS/portable/MemMang/heap_5.c ****                     mtCOVERAGE_TEST_MARKER();
 176:Source/FreeRTOS/portable/MemMang/heap_5.c ****                 }
 177:Source/FreeRTOS/portable/MemMang/heap_5.c ****             }
 178:Source/FreeRTOS/portable/MemMang/heap_5.c ****             else
 179:Source/FreeRTOS/portable/MemMang/heap_5.c ****             {
ARM GAS  /tmp/ccX30Dk5.s 			page 8


 180:Source/FreeRTOS/portable/MemMang/heap_5.c ****                 xWantedSize = 0;
 210              		.loc 1 180 29
 211 0072 0023     		movs	r3, #0	@ tmp164,
 212 0074 0193     		str	r3, [sp, #4]	@ tmp164, xWantedSize
 213              	.L7:
 214              	@ Source/FreeRTOS/portable/MemMang/heap_5.c:183:             if( ( xWantedSize > 0 ) && ( xWantedSi
 181:Source/FreeRTOS/portable/MemMang/heap_5.c ****             }
 182:Source/FreeRTOS/portable/MemMang/heap_5.c **** 
 183:Source/FreeRTOS/portable/MemMang/heap_5.c ****             if( ( xWantedSize > 0 ) && ( xWantedSize <= xFreeBytesRemaining ) )
 215              		.loc 1 183 15
 216 0076 019B     		ldr	r3, [sp, #4]	@ tmp165, xWantedSize
 217 0078 002B     		cmp	r3, #0	@ tmp165,
 218 007a 5ED0     		beq	.L3		@,
 219              	@ Source/FreeRTOS/portable/MemMang/heap_5.c:183:             if( ( xWantedSize > 0 ) && ( xWantedSi
 220              		.loc 1 183 54 discriminator 1
 221 007c 364B     		ldr	r3, .L14+16	@ tmp166,
 222 007e 1B68     		ldr	r3, [r3]	@ xFreeBytesRemaining.4_11, xFreeBytesRemaining
 223              	@ Source/FreeRTOS/portable/MemMang/heap_5.c:183:             if( ( xWantedSize > 0 ) && ( xWantedSi
 224              		.loc 1 183 37 discriminator 1
 225 0080 019A     		ldr	r2, [sp, #4]	@ tmp167, xWantedSize
 226 0082 9A42     		cmp	r2, r3	@ tmp167, xFreeBytesRemaining.4_11
 227 0084 59D8     		bhi	.L3		@,
 228              	@ Source/FreeRTOS/portable/MemMang/heap_5.c:187:                 pxPreviousBlock = &xStart;
 184:Source/FreeRTOS/portable/MemMang/heap_5.c ****             {
 185:Source/FreeRTOS/portable/MemMang/heap_5.c ****                 /* Traverse the list from the start (lowest address) block until
 186:Source/FreeRTOS/portable/MemMang/heap_5.c ****                  * one of adequate size is found. */
 187:Source/FreeRTOS/portable/MemMang/heap_5.c ****                 pxPreviousBlock = &xStart;
 229              		.loc 1 187 33
 230 0086 354B     		ldr	r3, .L14+20	@ tmp168,
 231 0088 0493     		str	r3, [sp, #16]	@ tmp168, pxPreviousBlock
 232              	@ Source/FreeRTOS/portable/MemMang/heap_5.c:188:                 pxBlock = xStart.pxNextFreeBlock;
 188:Source/FreeRTOS/portable/MemMang/heap_5.c ****                 pxBlock = xStart.pxNextFreeBlock;
 233              		.loc 1 188 25
 234 008a 344B     		ldr	r3, .L14+20	@ tmp169,
 235 008c 1B68     		ldr	r3, [r3]	@ tmp170, xStart.pxNextFreeBlock
 236 008e 0593     		str	r3, [sp, #20]	@ tmp170, pxBlock
 237              	@ Source/FreeRTOS/portable/MemMang/heap_5.c:190:                 while( ( pxBlock->xBlockSize < xWa
 189:Source/FreeRTOS/portable/MemMang/heap_5.c **** 
 190:Source/FreeRTOS/portable/MemMang/heap_5.c ****                 while( ( pxBlock->xBlockSize < xWantedSize ) && ( pxBlock->pxNextFreeBlock != NULL 
 238              		.loc 1 190 22
 239 0090 04E0     		b	.L8		@
 240              	.L10:
 241              	@ Source/FreeRTOS/portable/MemMang/heap_5.c:192:                     pxPreviousBlock = pxBlock;
 191:Source/FreeRTOS/portable/MemMang/heap_5.c ****                 {
 192:Source/FreeRTOS/portable/MemMang/heap_5.c ****                     pxPreviousBlock = pxBlock;
 242              		.loc 1 192 37
 243 0092 059B     		ldr	r3, [sp, #20]	@ tmp171, pxBlock
 244 0094 0493     		str	r3, [sp, #16]	@ tmp171, pxPreviousBlock
 245              	@ Source/FreeRTOS/portable/MemMang/heap_5.c:193:                     pxBlock = pxBlock->pxNextFreeB
 193:Source/FreeRTOS/portable/MemMang/heap_5.c ****                     pxBlock = pxBlock->pxNextFreeBlock;
 246              		.loc 1 193 29
 247 0096 059B     		ldr	r3, [sp, #20]	@ tmp172, pxBlock
 248 0098 1B68     		ldr	r3, [r3]	@ tmp173, pxBlock_37->pxNextFreeBlock
 249 009a 0593     		str	r3, [sp, #20]	@ tmp173, pxBlock
 250              	.L8:
 251              	@ Source/FreeRTOS/portable/MemMang/heap_5.c:190:                 while( ( pxBlock->xBlockSize < xWa
 190:Source/FreeRTOS/portable/MemMang/heap_5.c ****                 {
ARM GAS  /tmp/ccX30Dk5.s 			page 9


 252              		.loc 1 190 33
 253 009c 059B     		ldr	r3, [sp, #20]	@ tmp174, pxBlock
 254 009e 5B68     		ldr	r3, [r3, #4]	@ _12, pxBlock_37->xBlockSize
 255              	@ Source/FreeRTOS/portable/MemMang/heap_5.c:190:                 while( ( pxBlock->xBlockSize < xWa
 190:Source/FreeRTOS/portable/MemMang/heap_5.c ****                 {
 256              		.loc 1 190 22
 257 00a0 019A     		ldr	r2, [sp, #4]	@ tmp175, xWantedSize
 258 00a2 9A42     		cmp	r2, r3	@ tmp175, _12
 259 00a4 03D9     		bls	.L9		@,
 260              	@ Source/FreeRTOS/portable/MemMang/heap_5.c:190:                 while( ( pxBlock->xBlockSize < xWa
 190:Source/FreeRTOS/portable/MemMang/heap_5.c ****                 {
 261              		.loc 1 190 74 discriminator 1
 262 00a6 059B     		ldr	r3, [sp, #20]	@ tmp176, pxBlock
 263 00a8 1B68     		ldr	r3, [r3]	@ _13, pxBlock_37->pxNextFreeBlock
 264              	@ Source/FreeRTOS/portable/MemMang/heap_5.c:190:                 while( ( pxBlock->xBlockSize < xWa
 190:Source/FreeRTOS/portable/MemMang/heap_5.c ****                 {
 265              		.loc 1 190 62 discriminator 1
 266 00aa 002B     		cmp	r3, #0	@ _13,
 267 00ac F1D1     		bne	.L10		@,
 268              	.L9:
 269              	@ Source/FreeRTOS/portable/MemMang/heap_5.c:198:                 if( pxBlock != pxEnd )
 194:Source/FreeRTOS/portable/MemMang/heap_5.c ****                 }
 195:Source/FreeRTOS/portable/MemMang/heap_5.c **** 
 196:Source/FreeRTOS/portable/MemMang/heap_5.c ****                 /* If the end marker was reached then a block of adequate size
 197:Source/FreeRTOS/portable/MemMang/heap_5.c ****                  * was not found. */
 198:Source/FreeRTOS/portable/MemMang/heap_5.c ****                 if( pxBlock != pxEnd )
 270              		.loc 1 198 29
 271 00ae 264B     		ldr	r3, .L14	@ tmp177,
 272 00b0 1B68     		ldr	r3, [r3]	@ pxEnd.5_14, pxEnd
 273              	@ Source/FreeRTOS/portable/MemMang/heap_5.c:198:                 if( pxBlock != pxEnd )
 274              		.loc 1 198 19
 275 00b2 059A     		ldr	r2, [sp, #20]	@ tmp178, pxBlock
 276 00b4 9A42     		cmp	r2, r3	@ tmp178, pxEnd.5_14
 277 00b6 40D0     		beq	.L3		@,
 278              	@ Source/FreeRTOS/portable/MemMang/heap_5.c:202:                     pvReturn = ( void * ) ( ( ( ui
 199:Source/FreeRTOS/portable/MemMang/heap_5.c ****                 {
 200:Source/FreeRTOS/portable/MemMang/heap_5.c ****                     /* Return the memory space pointed to - jumping over the
 201:Source/FreeRTOS/portable/MemMang/heap_5.c ****                      * BlockLink_t structure at its start. */
 202:Source/FreeRTOS/portable/MemMang/heap_5.c ****                     pvReturn = ( void * ) ( ( ( uint8_t * ) pxPreviousBlock->pxNextFreeBlock ) + xH
 279              		.loc 1 202 76
 280 00b8 049B     		ldr	r3, [sp, #16]	@ tmp179, pxPreviousBlock
 281 00ba 1B68     		ldr	r3, [r3]	@ _15, pxPreviousBlock_38->pxNextFreeBlock
 282              	@ Source/FreeRTOS/portable/MemMang/heap_5.c:202:                     pvReturn = ( void * ) ( ( ( ui
 283              		.loc 1 202 32
 284 00bc 0822     		movs	r2, #8	@ xHeapStructSize.6_16,
 285              	@ Source/FreeRTOS/portable/MemMang/heap_5.c:202:                     pvReturn = ( void * ) ( ( ( ui
 286              		.loc 1 202 30
 287 00be 1344     		add	r3, r3, r2	@ tmp180, xHeapStructSize.6_16
 288 00c0 0393     		str	r3, [sp, #12]	@ tmp180, pvReturn
 289              	@ Source/FreeRTOS/portable/MemMang/heap_5.c:206:                     pxPreviousBlock->pxNextFreeBlo
 203:Source/FreeRTOS/portable/MemMang/heap_5.c **** 
 204:Source/FreeRTOS/portable/MemMang/heap_5.c ****                     /* This block is being returned for use so must be taken out
 205:Source/FreeRTOS/portable/MemMang/heap_5.c ****                      * of the list of free blocks. */
 206:Source/FreeRTOS/portable/MemMang/heap_5.c ****                     pxPreviousBlock->pxNextFreeBlock = pxBlock->pxNextFreeBlock;
 290              		.loc 1 206 63
 291 00c2 059B     		ldr	r3, [sp, #20]	@ tmp181, pxBlock
 292 00c4 1A68     		ldr	r2, [r3]	@ _17, pxBlock_37->pxNextFreeBlock
ARM GAS  /tmp/ccX30Dk5.s 			page 10


 293              	@ Source/FreeRTOS/portable/MemMang/heap_5.c:206:                     pxPreviousBlock->pxNextFreeBlo
 294              		.loc 1 206 54
 295 00c6 049B     		ldr	r3, [sp, #16]	@ tmp182, pxPreviousBlock
 296 00c8 1A60     		str	r2, [r3]	@ _17, pxPreviousBlock_38->pxNextFreeBlock
 297              	@ Source/FreeRTOS/portable/MemMang/heap_5.c:210:                     if( ( pxBlock->xBlockSize - xW
 207:Source/FreeRTOS/portable/MemMang/heap_5.c **** 
 208:Source/FreeRTOS/portable/MemMang/heap_5.c ****                     /* If the block is larger than required it can be split into
 209:Source/FreeRTOS/portable/MemMang/heap_5.c ****                      * two. */
 210:Source/FreeRTOS/portable/MemMang/heap_5.c ****                     if( ( pxBlock->xBlockSize - xWantedSize ) > heapMINIMUM_BLOCK_SIZE )
 298              		.loc 1 210 34
 299 00ca 059B     		ldr	r3, [sp, #20]	@ tmp183, pxBlock
 300 00cc 5A68     		ldr	r2, [r3, #4]	@ _18, pxBlock_37->xBlockSize
 301              	@ Source/FreeRTOS/portable/MemMang/heap_5.c:210:                     if( ( pxBlock->xBlockSize - xW
 302              		.loc 1 210 47
 303 00ce 019B     		ldr	r3, [sp, #4]	@ tmp184, xWantedSize
 304 00d0 D21A     		subs	r2, r2, r3	@ _19, _18, tmp184
 305              	@ Source/FreeRTOS/portable/MemMang/heap_5.c:210:                     if( ( pxBlock->xBlockSize - xW
 306              		.loc 1 210 65
 307 00d2 0823     		movs	r3, #8	@ xHeapStructSize.7_20,
 308 00d4 5B00     		lsls	r3, r3, #1	@ _21, xHeapStructSize.7_20,
 309              	@ Source/FreeRTOS/portable/MemMang/heap_5.c:210:                     if( ( pxBlock->xBlockSize - xW
 310              		.loc 1 210 23
 311 00d6 9A42     		cmp	r2, r3	@ _19, _21
 312 00d8 0FD9     		bls	.L11		@,
 313              	@ Source/FreeRTOS/portable/MemMang/heap_5.c:216:                         pxNewBlockLink = ( void * 
 211:Source/FreeRTOS/portable/MemMang/heap_5.c ****                     {
 212:Source/FreeRTOS/portable/MemMang/heap_5.c ****                         /* This block is to be split into two.  Create a new
 213:Source/FreeRTOS/portable/MemMang/heap_5.c ****                          * block following the number of bytes requested. The void
 214:Source/FreeRTOS/portable/MemMang/heap_5.c ****                          * cast is used to prevent byte alignment warnings from the
 215:Source/FreeRTOS/portable/MemMang/heap_5.c ****                          * compiler. */
 216:Source/FreeRTOS/portable/MemMang/heap_5.c ****                         pxNewBlockLink = ( void * ) ( ( ( uint8_t * ) pxBlock ) + xWantedSize );
 314              		.loc 1 216 40
 315 00da 059A     		ldr	r2, [sp, #20]	@ tmp186, pxBlock
 316 00dc 019B     		ldr	r3, [sp, #4]	@ tmp187, xWantedSize
 317 00de 1344     		add	r3, r3, r2	@ tmp185, tmp186
 318 00e0 0293     		str	r3, [sp, #8]	@ tmp185, pxNewBlockLink
 319              	@ Source/FreeRTOS/portable/MemMang/heap_5.c:220:                         pxNewBlockLink->xBlockSize
 217:Source/FreeRTOS/portable/MemMang/heap_5.c **** 
 218:Source/FreeRTOS/portable/MemMang/heap_5.c ****                         /* Calculate the sizes of two blocks split from the
 219:Source/FreeRTOS/portable/MemMang/heap_5.c ****                          * single block. */
 220:Source/FreeRTOS/portable/MemMang/heap_5.c ****                         pxNewBlockLink->xBlockSize = pxBlock->xBlockSize - xWantedSize;
 320              		.loc 1 220 61
 321 00e2 059B     		ldr	r3, [sp, #20]	@ tmp188, pxBlock
 322 00e4 5A68     		ldr	r2, [r3, #4]	@ _22, pxBlock_37->xBlockSize
 323              	@ Source/FreeRTOS/portable/MemMang/heap_5.c:220:                         pxNewBlockLink->xBlockSize
 324              		.loc 1 220 74
 325 00e6 019B     		ldr	r3, [sp, #4]	@ tmp189, xWantedSize
 326 00e8 D21A     		subs	r2, r2, r3	@ _23, _22, tmp189
 327              	@ Source/FreeRTOS/portable/MemMang/heap_5.c:220:                         pxNewBlockLink->xBlockSize
 328              		.loc 1 220 52
 329 00ea 029B     		ldr	r3, [sp, #8]	@ tmp190, pxNewBlockLink
 330 00ec 5A60     		str	r2, [r3, #4]	@ _23, pxNewBlockLink_59->xBlockSize
 331              	@ Source/FreeRTOS/portable/MemMang/heap_5.c:221:                         pxBlock->xBlockSize = xWan
 221:Source/FreeRTOS/portable/MemMang/heap_5.c ****                         pxBlock->xBlockSize = xWantedSize;
 332              		.loc 1 221 45
 333 00ee 059B     		ldr	r3, [sp, #20]	@ tmp191, pxBlock
 334 00f0 019A     		ldr	r2, [sp, #4]	@ tmp192, xWantedSize
ARM GAS  /tmp/ccX30Dk5.s 			page 11


 335 00f2 5A60     		str	r2, [r3, #4]	@ tmp192, pxBlock_37->xBlockSize
 336              	@ Source/FreeRTOS/portable/MemMang/heap_5.c:224:                         prvInsertBlockIntoFreeList
 222:Source/FreeRTOS/portable/MemMang/heap_5.c **** 
 223:Source/FreeRTOS/portable/MemMang/heap_5.c ****                         /* Insert the new block into the list of free blocks. */
 224:Source/FreeRTOS/portable/MemMang/heap_5.c ****                         prvInsertBlockIntoFreeList( ( pxNewBlockLink ) );
 337              		.loc 1 224 25
 338 00f4 0298     		ldr	r0, [sp, #8]	@, pxNewBlockLink
 339 00f6 00F09DF8 		bl	prvInsertBlockIntoFreeList		@
 340              	.L11:
 341              	@ Source/FreeRTOS/portable/MemMang/heap_5.c:231:                     xFreeBytesRemaining -= pxBlock
 225:Source/FreeRTOS/portable/MemMang/heap_5.c ****                     }
 226:Source/FreeRTOS/portable/MemMang/heap_5.c ****                     else
 227:Source/FreeRTOS/portable/MemMang/heap_5.c ****                     {
 228:Source/FreeRTOS/portable/MemMang/heap_5.c ****                         mtCOVERAGE_TEST_MARKER();
 229:Source/FreeRTOS/portable/MemMang/heap_5.c ****                     }
 230:Source/FreeRTOS/portable/MemMang/heap_5.c **** 
 231:Source/FreeRTOS/portable/MemMang/heap_5.c ****                     xFreeBytesRemaining -= pxBlock->xBlockSize;
 342              		.loc 1 231 41
 343 00fa 174B     		ldr	r3, .L14+16	@ tmp193,
 344 00fc 1A68     		ldr	r2, [r3]	@ xFreeBytesRemaining.8_24, xFreeBytesRemaining
 345              	@ Source/FreeRTOS/portable/MemMang/heap_5.c:231:                     xFreeBytesRemaining -= pxBlock
 346              		.loc 1 231 51
 347 00fe 059B     		ldr	r3, [sp, #20]	@ tmp194, pxBlock
 348 0100 5B68     		ldr	r3, [r3, #4]	@ _25, pxBlock_37->xBlockSize
 349              	@ Source/FreeRTOS/portable/MemMang/heap_5.c:231:                     xFreeBytesRemaining -= pxBlock
 350              		.loc 1 231 41
 351 0102 D31A     		subs	r3, r2, r3	@ _26, xFreeBytesRemaining.8_24, _25
 352 0104 144A     		ldr	r2, .L14+16	@ tmp195,
 353 0106 1360     		str	r3, [r2]	@ _26, xFreeBytesRemaining
 354              	@ Source/FreeRTOS/portable/MemMang/heap_5.c:233:                     if( xFreeBytesRemaining < xMin
 232:Source/FreeRTOS/portable/MemMang/heap_5.c **** 
 233:Source/FreeRTOS/portable/MemMang/heap_5.c ****                     if( xFreeBytesRemaining < xMinimumEverFreeBytesRemaining )
 355              		.loc 1 233 45
 356 0108 134B     		ldr	r3, .L14+16	@ tmp196,
 357 010a 1A68     		ldr	r2, [r3]	@ xFreeBytesRemaining.9_27, xFreeBytesRemaining
 358 010c 144B     		ldr	r3, .L14+24	@ tmp197,
 359 010e 1B68     		ldr	r3, [r3]	@ xMinimumEverFreeBytesRemaining.10_28, xMinimumEverFreeBytesRemaining
 360              	@ Source/FreeRTOS/portable/MemMang/heap_5.c:233:                     if( xFreeBytesRemaining < xMin
 361              		.loc 1 233 23
 362 0110 9A42     		cmp	r2, r3	@ xFreeBytesRemaining.9_27, xMinimumEverFreeBytesRemaining.10_28
 363 0112 03D2     		bcs	.L12		@,
 364              	@ Source/FreeRTOS/portable/MemMang/heap_5.c:235:                         xMinimumEverFreeBytesRemai
 234:Source/FreeRTOS/portable/MemMang/heap_5.c ****                     {
 235:Source/FreeRTOS/portable/MemMang/heap_5.c ****                         xMinimumEverFreeBytesRemaining = xFreeBytesRemaining;
 365              		.loc 1 235 56
 366 0114 104B     		ldr	r3, .L14+16	@ tmp198,
 367 0116 1B68     		ldr	r3, [r3]	@ xFreeBytesRemaining.11_29, xFreeBytesRemaining
 368 0118 114A     		ldr	r2, .L14+24	@ tmp199,
 369 011a 1360     		str	r3, [r2]	@ xFreeBytesRemaining.11_29, xMinimumEverFreeBytesRemaining
 370              	.L12:
 371              	@ Source/FreeRTOS/portable/MemMang/heap_5.c:244:                     pxBlock->xBlockSize |= xBlockA
 236:Source/FreeRTOS/portable/MemMang/heap_5.c ****                     }
 237:Source/FreeRTOS/portable/MemMang/heap_5.c ****                     else
 238:Source/FreeRTOS/portable/MemMang/heap_5.c ****                     {
 239:Source/FreeRTOS/portable/MemMang/heap_5.c ****                         mtCOVERAGE_TEST_MARKER();
 240:Source/FreeRTOS/portable/MemMang/heap_5.c ****                     }
 241:Source/FreeRTOS/portable/MemMang/heap_5.c **** 
ARM GAS  /tmp/ccX30Dk5.s 			page 12


 242:Source/FreeRTOS/portable/MemMang/heap_5.c ****                     /* The block is being returned - it is allocated and owned
 243:Source/FreeRTOS/portable/MemMang/heap_5.c ****                      * by the application and has no "next" block. */
 244:Source/FreeRTOS/portable/MemMang/heap_5.c ****                     pxBlock->xBlockSize |= xBlockAllocatedBit;
 372              		.loc 1 244 41
 373 011c 059B     		ldr	r3, [sp, #20]	@ tmp200, pxBlock
 374 011e 5A68     		ldr	r2, [r3, #4]	@ _30, pxBlock_37->xBlockSize
 375 0120 0C4B     		ldr	r3, .L14+12	@ tmp201,
 376 0122 1B68     		ldr	r3, [r3]	@ xBlockAllocatedBit.12_31, xBlockAllocatedBit
 377 0124 1A43     		orrs	r2, r2, r3	@, _32, _30, xBlockAllocatedBit.12_31
 378 0126 059B     		ldr	r3, [sp, #20]	@ tmp202, pxBlock
 379 0128 5A60     		str	r2, [r3, #4]	@ _32, pxBlock_37->xBlockSize
 380              	@ Source/FreeRTOS/portable/MemMang/heap_5.c:245:                     pxBlock->pxNextFreeBlock = NUL
 245:Source/FreeRTOS/portable/MemMang/heap_5.c ****                     pxBlock->pxNextFreeBlock = NULL;
 381              		.loc 1 245 46
 382 012a 059B     		ldr	r3, [sp, #20]	@ tmp203, pxBlock
 383 012c 0022     		movs	r2, #0	@ tmp204,
 384 012e 1A60     		str	r2, [r3]	@ tmp204, pxBlock_37->pxNextFreeBlock
 385              	@ Source/FreeRTOS/portable/MemMang/heap_5.c:246:                     xNumberOfSuccessfulAllocations
 246:Source/FreeRTOS/portable/MemMang/heap_5.c ****                     xNumberOfSuccessfulAllocations++;
 386              		.loc 1 246 51
 387 0130 0C4B     		ldr	r3, .L14+28	@ tmp205,
 388 0132 1B68     		ldr	r3, [r3]	@ xNumberOfSuccessfulAllocations.13_33, xNumberOfSuccessfulAllocations
 389 0134 0133     		adds	r3, r3, #1	@ _34, xNumberOfSuccessfulAllocations.13_33,
 390 0136 0B4A     		ldr	r2, .L14+28	@ tmp206,
 391 0138 1360     		str	r3, [r2]	@ _34, xNumberOfSuccessfulAllocations
 392              	.L3:
 393              	@ Source/FreeRTOS/portable/MemMang/heap_5.c:265:     ( void ) xTaskResumeAll();
 247:Source/FreeRTOS/portable/MemMang/heap_5.c ****                 }
 248:Source/FreeRTOS/portable/MemMang/heap_5.c ****                 else
 249:Source/FreeRTOS/portable/MemMang/heap_5.c ****                 {
 250:Source/FreeRTOS/portable/MemMang/heap_5.c ****                     mtCOVERAGE_TEST_MARKER();
 251:Source/FreeRTOS/portable/MemMang/heap_5.c ****                 }
 252:Source/FreeRTOS/portable/MemMang/heap_5.c ****             }
 253:Source/FreeRTOS/portable/MemMang/heap_5.c ****             else
 254:Source/FreeRTOS/portable/MemMang/heap_5.c ****             {
 255:Source/FreeRTOS/portable/MemMang/heap_5.c ****                 mtCOVERAGE_TEST_MARKER();
 256:Source/FreeRTOS/portable/MemMang/heap_5.c ****             }
 257:Source/FreeRTOS/portable/MemMang/heap_5.c ****         }
 258:Source/FreeRTOS/portable/MemMang/heap_5.c ****         else
 259:Source/FreeRTOS/portable/MemMang/heap_5.c ****         {
 260:Source/FreeRTOS/portable/MemMang/heap_5.c ****             mtCOVERAGE_TEST_MARKER();
 261:Source/FreeRTOS/portable/MemMang/heap_5.c ****         }
 262:Source/FreeRTOS/portable/MemMang/heap_5.c **** 
 263:Source/FreeRTOS/portable/MemMang/heap_5.c ****         traceMALLOC( pvReturn, xWantedSize );
 264:Source/FreeRTOS/portable/MemMang/heap_5.c ****     }
 265:Source/FreeRTOS/portable/MemMang/heap_5.c ****     ( void ) xTaskResumeAll();
 394              		.loc 1 265 14
 395 013a FFF7FEFF 		bl	xTaskResumeAll		@
 396              	@ Source/FreeRTOS/portable/MemMang/heap_5.c:281:     return pvReturn;
 266:Source/FreeRTOS/portable/MemMang/heap_5.c **** 
 267:Source/FreeRTOS/portable/MemMang/heap_5.c ****     #if ( configUSE_MALLOC_FAILED_HOOK == 1 )
 268:Source/FreeRTOS/portable/MemMang/heap_5.c ****         {
 269:Source/FreeRTOS/portable/MemMang/heap_5.c ****             if( pvReturn == NULL )
 270:Source/FreeRTOS/portable/MemMang/heap_5.c ****             {
 271:Source/FreeRTOS/portable/MemMang/heap_5.c ****                 extern void vApplicationMallocFailedHook( void );
 272:Source/FreeRTOS/portable/MemMang/heap_5.c ****                 vApplicationMallocFailedHook();
 273:Source/FreeRTOS/portable/MemMang/heap_5.c ****             }
ARM GAS  /tmp/ccX30Dk5.s 			page 13


 274:Source/FreeRTOS/portable/MemMang/heap_5.c ****             else
 275:Source/FreeRTOS/portable/MemMang/heap_5.c ****             {
 276:Source/FreeRTOS/portable/MemMang/heap_5.c ****                 mtCOVERAGE_TEST_MARKER();
 277:Source/FreeRTOS/portable/MemMang/heap_5.c ****             }
 278:Source/FreeRTOS/portable/MemMang/heap_5.c ****         }
 279:Source/FreeRTOS/portable/MemMang/heap_5.c ****     #endif /* if ( configUSE_MALLOC_FAILED_HOOK == 1 ) */
 280:Source/FreeRTOS/portable/MemMang/heap_5.c **** 
 281:Source/FreeRTOS/portable/MemMang/heap_5.c ****     return pvReturn;
 397              		.loc 1 281 12
 398 013e 039B     		ldr	r3, [sp, #12]	@ _69, pvReturn
 399              	@ Source/FreeRTOS/portable/MemMang/heap_5.c:282: }
 282:Source/FreeRTOS/portable/MemMang/heap_5.c **** }
 400              		.loc 1 282 1
 401 0140 1846     		mov	r0, r3	@, <retval>
 402 0142 07B0     		add	sp, sp, #28	@,,
 403              	.LCFI2:
 404              		.cfi_def_cfa_offset 4
 405              		@ sp needed	@
 406 0144 5DF804FB 		ldr	pc, [sp], #4	@
 407              	.L15:
 408              		.align	2
 409              	.L14:
 410 0148 08000000 		.word	pxEnd
 411 014c 04000000 		.word	.LC0
 412 0150 30000000 		.word	.LC1
 413 0154 1C000000 		.word	xBlockAllocatedBit
 414 0158 0C000000 		.word	xFreeBytesRemaining
 415 015c 00000000 		.word	xStart
 416 0160 10000000 		.word	xMinimumEverFreeBytesRemaining
 417 0164 14000000 		.word	xNumberOfSuccessfulAllocations
 418              		.cfi_endproc
 419              	.LFE5:
 420              		.size	pvPortMalloc, .-pvPortMalloc
 421              		.align	1
 422              		.global	vPortFree
 423              		.syntax unified
 424              		.thumb
 425              		.thumb_func
 426              		.type	vPortFree, %function
 427              	vPortFree:
 428              	.LFB6:
 283:Source/FreeRTOS/portable/MemMang/heap_5.c **** /*-----------------------------------------------------------*/
 284:Source/FreeRTOS/portable/MemMang/heap_5.c **** 
 285:Source/FreeRTOS/portable/MemMang/heap_5.c **** void vPortFree( void * pv )
 286:Source/FreeRTOS/portable/MemMang/heap_5.c **** {
 429              		.loc 1 286 1
 430              		.cfi_startproc
 431              		@ args = 0, pretend = 0, frame = 16
 432              		@ frame_needed = 0, uses_anonymous_args = 0
 433 0168 00B5     		push	{lr}	@
 434              	.LCFI3:
 435              		.cfi_def_cfa_offset 4
 436              		.cfi_offset 14, -4
 437 016a 85B0     		sub	sp, sp, #20	@,,
 438              	.LCFI4:
 439              		.cfi_def_cfa_offset 24
 440 016c 0190     		str	r0, [sp, #4]	@ pv, pv
ARM GAS  /tmp/ccX30Dk5.s 			page 14


 441              	@ Source/FreeRTOS/portable/MemMang/heap_5.c:287:     uint8_t * puc = ( uint8_t * ) pv;
 287:Source/FreeRTOS/portable/MemMang/heap_5.c ****     uint8_t * puc = ( uint8_t * ) pv;
 442              		.loc 1 287 15
 443 016e 019B     		ldr	r3, [sp, #4]	@ tmp132, pv
 444 0170 0393     		str	r3, [sp, #12]	@ tmp132, puc
 445              	@ Source/FreeRTOS/portable/MemMang/heap_5.c:290:     if( pv != NULL )
 288:Source/FreeRTOS/portable/MemMang/heap_5.c ****     BlockLink_t * pxLink;
 289:Source/FreeRTOS/portable/MemMang/heap_5.c **** 
 290:Source/FreeRTOS/portable/MemMang/heap_5.c ****     if( pv != NULL )
 446              		.loc 1 290 7
 447 0172 019B     		ldr	r3, [sp, #4]	@ tmp133, pv
 448 0174 002B     		cmp	r3, #0	@ tmp133,
 449 0176 43D0     		beq	.L20		@,
 450              	@ Source/FreeRTOS/portable/MemMang/heap_5.c:294:         puc -= xHeapStructSize;
 291:Source/FreeRTOS/portable/MemMang/heap_5.c ****     {
 292:Source/FreeRTOS/portable/MemMang/heap_5.c ****         /* The memory being freed will have an BlockLink_t structure immediately
 293:Source/FreeRTOS/portable/MemMang/heap_5.c ****          * before it. */
 294:Source/FreeRTOS/portable/MemMang/heap_5.c ****         puc -= xHeapStructSize;
 451              		.loc 1 294 13
 452 0178 0823     		movs	r3, #8	@ xHeapStructSize.14_1,
 453 017a 5B42     		rsbs	r3, r3, #0	@ _2, xHeapStructSize.14_1
 454 017c 039A     		ldr	r2, [sp, #12]	@ tmp135, puc
 455 017e 1344     		add	r3, r3, r2	@ tmp134, tmp135
 456 0180 0393     		str	r3, [sp, #12]	@ tmp134, puc
 457              	@ Source/FreeRTOS/portable/MemMang/heap_5.c:297:         pxLink = ( void * ) puc;
 295:Source/FreeRTOS/portable/MemMang/heap_5.c **** 
 296:Source/FreeRTOS/portable/MemMang/heap_5.c ****         /* This casting is to keep the compiler from issuing warnings. */
 297:Source/FreeRTOS/portable/MemMang/heap_5.c ****         pxLink = ( void * ) puc;
 458              		.loc 1 297 16
 459 0182 039B     		ldr	r3, [sp, #12]	@ tmp136, puc
 460 0184 0293     		str	r3, [sp, #8]	@ tmp136, pxLink
 461              	@ Source/FreeRTOS/portable/MemMang/heap_5.c:300:         configASSERT( ( pxLink->xBlockSize & xBloc
 298:Source/FreeRTOS/portable/MemMang/heap_5.c **** 
 299:Source/FreeRTOS/portable/MemMang/heap_5.c ****         /* Check the block is actually allocated. */
 300:Source/FreeRTOS/portable/MemMang/heap_5.c ****         configASSERT( ( pxLink->xBlockSize & xBlockAllocatedBit ) != 0 );
 462              		.loc 1 300 9
 463 0186 029B     		ldr	r3, [sp, #8]	@ tmp137, pxLink
 464 0188 5A68     		ldr	r2, [r3, #4]	@ _3, pxLink_27->xBlockSize
 465 018a 1F4B     		ldr	r3, .L21	@ tmp138,
 466 018c 1B68     		ldr	r3, [r3]	@ xBlockAllocatedBit.15_4, xBlockAllocatedBit
 467 018e 1340     		ands	r3, r3, r2	@, _5, xBlockAllocatedBit.15_4, _3
 468 0190 002B     		cmp	r3, #0	@ _5,
 469 0192 05D1     		bne	.L18		@,
 470              	.LBB3:
 471              	@ Source/FreeRTOS/portable/MemMang/heap_5.c:300:         configASSERT( ( pxLink->xBlockSize & xBloc
 472              		.loc 1 300 9 is_stmt 0 discriminator 1
 473 0194 4FF49672 		mov	r2, #300	@,
 474 0198 1C49     		ldr	r1, .L21+4	@,
 475 019a 1D48     		ldr	r0, .L21+8	@,
 476 019c FFF7FEFF 		bl	printf		@
 477              	.L18:
 478              	.LBE3:
 479              	@ Source/FreeRTOS/portable/MemMang/heap_5.c:301:         configASSERT( pxLink->pxNextFreeBlock == N
 301:Source/FreeRTOS/portable/MemMang/heap_5.c ****         configASSERT( pxLink->pxNextFreeBlock == NULL );
 480              		.loc 1 301 9 is_stmt 1
 481 01a0 029B     		ldr	r3, [sp, #8]	@ tmp139, pxLink
 482 01a2 1B68     		ldr	r3, [r3]	@ _6, pxLink_27->pxNextFreeBlock
ARM GAS  /tmp/ccX30Dk5.s 			page 15


 483 01a4 002B     		cmp	r3, #0	@ _6,
 484 01a6 05D0     		beq	.L19		@,
 485              	.LBB4:
 486              	@ Source/FreeRTOS/portable/MemMang/heap_5.c:301:         configASSERT( pxLink->pxNextFreeBlock == N
 487              		.loc 1 301 9 is_stmt 0 discriminator 1
 488 01a8 40F22D12 		movw	r2, #301	@,
 489 01ac 1749     		ldr	r1, .L21+4	@,
 490 01ae 1848     		ldr	r0, .L21+8	@,
 491 01b0 FFF7FEFF 		bl	printf		@
 492              	.L19:
 493              	.LBE4:
 494              	@ Source/FreeRTOS/portable/MemMang/heap_5.c:303:         if( ( pxLink->xBlockSize & xBlockAllocated
 302:Source/FreeRTOS/portable/MemMang/heap_5.c **** 
 303:Source/FreeRTOS/portable/MemMang/heap_5.c ****         if( ( pxLink->xBlockSize & xBlockAllocatedBit ) != 0 )
 495              		.loc 1 303 21 is_stmt 1
 496 01b4 029B     		ldr	r3, [sp, #8]	@ tmp140, pxLink
 497 01b6 5A68     		ldr	r2, [r3, #4]	@ _7, pxLink_27->xBlockSize
 498              	@ Source/FreeRTOS/portable/MemMang/heap_5.c:303:         if( ( pxLink->xBlockSize & xBlockAllocated
 499              		.loc 1 303 34
 500 01b8 134B     		ldr	r3, .L21	@ tmp141,
 501 01ba 1B68     		ldr	r3, [r3]	@ xBlockAllocatedBit.16_8, xBlockAllocatedBit
 502 01bc 1340     		ands	r3, r3, r2	@, _9, xBlockAllocatedBit.16_8, _7
 503              	@ Source/FreeRTOS/portable/MemMang/heap_5.c:303:         if( ( pxLink->xBlockSize & xBlockAllocated
 504              		.loc 1 303 11
 505 01be 002B     		cmp	r3, #0	@ _9,
 506 01c0 1ED0     		beq	.L20		@,
 507              	@ Source/FreeRTOS/portable/MemMang/heap_5.c:305:             if( pxLink->pxNextFreeBlock == NULL )
 304:Source/FreeRTOS/portable/MemMang/heap_5.c ****         {
 305:Source/FreeRTOS/portable/MemMang/heap_5.c ****             if( pxLink->pxNextFreeBlock == NULL )
 508              		.loc 1 305 23
 509 01c2 029B     		ldr	r3, [sp, #8]	@ tmp142, pxLink
 510 01c4 1B68     		ldr	r3, [r3]	@ _10, pxLink_27->pxNextFreeBlock
 511              	@ Source/FreeRTOS/portable/MemMang/heap_5.c:305:             if( pxLink->pxNextFreeBlock == NULL )
 512              		.loc 1 305 15
 513 01c6 002B     		cmp	r3, #0	@ _10,
 514 01c8 1AD1     		bne	.L20		@,
 515              	@ Source/FreeRTOS/portable/MemMang/heap_5.c:309:                 pxLink->xBlockSize &= ~xBlockAlloc
 306:Source/FreeRTOS/portable/MemMang/heap_5.c ****             {
 307:Source/FreeRTOS/portable/MemMang/heap_5.c ****                 /* The block is being returned to the heap - it is no longer
 308:Source/FreeRTOS/portable/MemMang/heap_5.c ****                  * allocated. */
 309:Source/FreeRTOS/portable/MemMang/heap_5.c ****                 pxLink->xBlockSize &= ~xBlockAllocatedBit;
 516              		.loc 1 309 36
 517 01ca 029B     		ldr	r3, [sp, #8]	@ tmp143, pxLink
 518 01cc 5A68     		ldr	r2, [r3, #4]	@ _11, pxLink_27->xBlockSize
 519              	@ Source/FreeRTOS/portable/MemMang/heap_5.c:309:                 pxLink->xBlockSize &= ~xBlockAlloc
 520              		.loc 1 309 39
 521 01ce 0E4B     		ldr	r3, .L21	@ tmp144,
 522 01d0 1B68     		ldr	r3, [r3]	@ xBlockAllocatedBit.17_12, xBlockAllocatedBit
 523 01d2 DB43     		mvns	r3, r3	@ _13, xBlockAllocatedBit.17_12
 524              	@ Source/FreeRTOS/portable/MemMang/heap_5.c:309:                 pxLink->xBlockSize &= ~xBlockAlloc
 525              		.loc 1 309 36
 526 01d4 1A40     		ands	r2, r2, r3	@, _14, _11, _13
 527 01d6 029B     		ldr	r3, [sp, #8]	@ tmp145, pxLink
 528 01d8 5A60     		str	r2, [r3, #4]	@ _14, pxLink_27->xBlockSize
 529              	@ Source/FreeRTOS/portable/MemMang/heap_5.c:311:                 vTaskSuspendAll();
 310:Source/FreeRTOS/portable/MemMang/heap_5.c **** 
 311:Source/FreeRTOS/portable/MemMang/heap_5.c ****                 vTaskSuspendAll();
ARM GAS  /tmp/ccX30Dk5.s 			page 16


 530              		.loc 1 311 17
 531 01da FFF7FEFF 		bl	vTaskSuspendAll		@
 532              	@ Source/FreeRTOS/portable/MemMang/heap_5.c:314:                     xFreeBytesRemaining += pxLink-
 312:Source/FreeRTOS/portable/MemMang/heap_5.c ****                 {
 313:Source/FreeRTOS/portable/MemMang/heap_5.c ****                     /* Add this block to the list of free blocks. */
 314:Source/FreeRTOS/portable/MemMang/heap_5.c ****                     xFreeBytesRemaining += pxLink->xBlockSize;
 533              		.loc 1 314 50
 534 01de 029B     		ldr	r3, [sp, #8]	@ tmp146, pxLink
 535 01e0 5A68     		ldr	r2, [r3, #4]	@ _15, pxLink_27->xBlockSize
 536              	@ Source/FreeRTOS/portable/MemMang/heap_5.c:314:                     xFreeBytesRemaining += pxLink-
 537              		.loc 1 314 41
 538 01e2 0C4B     		ldr	r3, .L21+12	@ tmp147,
 539 01e4 1B68     		ldr	r3, [r3]	@ xFreeBytesRemaining.18_16, xFreeBytesRemaining
 540 01e6 1344     		add	r3, r3, r2	@ _17, _15
 541 01e8 0A4A     		ldr	r2, .L21+12	@ tmp148,
 542 01ea 1360     		str	r3, [r2]	@ _17, xFreeBytesRemaining
 543              	@ Source/FreeRTOS/portable/MemMang/heap_5.c:316:                     prvInsertBlockIntoFreeList( ( 
 315:Source/FreeRTOS/portable/MemMang/heap_5.c ****                     traceFREE( pv, pxLink->xBlockSize );
 316:Source/FreeRTOS/portable/MemMang/heap_5.c ****                     prvInsertBlockIntoFreeList( ( ( BlockLink_t * ) pxLink ) );
 544              		.loc 1 316 21
 545 01ec 0298     		ldr	r0, [sp, #8]	@, pxLink
 546 01ee 00F021F8 		bl	prvInsertBlockIntoFreeList		@
 547              	@ Source/FreeRTOS/portable/MemMang/heap_5.c:317:                     xNumberOfSuccessfulFrees++;
 317:Source/FreeRTOS/portable/MemMang/heap_5.c ****                     xNumberOfSuccessfulFrees++;
 548              		.loc 1 317 45
 549 01f2 094B     		ldr	r3, .L21+16	@ tmp149,
 550 01f4 1B68     		ldr	r3, [r3]	@ xNumberOfSuccessfulFrees.19_18, xNumberOfSuccessfulFrees
 551 01f6 0133     		adds	r3, r3, #1	@ _19, xNumberOfSuccessfulFrees.19_18,
 552 01f8 074A     		ldr	r2, .L21+16	@ tmp150,
 553 01fa 1360     		str	r3, [r2]	@ _19, xNumberOfSuccessfulFrees
 554              	@ Source/FreeRTOS/portable/MemMang/heap_5.c:319:                 ( void ) xTaskResumeAll();
 318:Source/FreeRTOS/portable/MemMang/heap_5.c ****                 }
 319:Source/FreeRTOS/portable/MemMang/heap_5.c ****                 ( void ) xTaskResumeAll();
 555              		.loc 1 319 26
 556 01fc FFF7FEFF 		bl	xTaskResumeAll		@
 557              	.L20:
 558              	@ Source/FreeRTOS/portable/MemMang/heap_5.c:331: }
 320:Source/FreeRTOS/portable/MemMang/heap_5.c ****             }
 321:Source/FreeRTOS/portable/MemMang/heap_5.c ****             else
 322:Source/FreeRTOS/portable/MemMang/heap_5.c ****             {
 323:Source/FreeRTOS/portable/MemMang/heap_5.c ****                 mtCOVERAGE_TEST_MARKER();
 324:Source/FreeRTOS/portable/MemMang/heap_5.c ****             }
 325:Source/FreeRTOS/portable/MemMang/heap_5.c ****         }
 326:Source/FreeRTOS/portable/MemMang/heap_5.c ****         else
 327:Source/FreeRTOS/portable/MemMang/heap_5.c ****         {
 328:Source/FreeRTOS/portable/MemMang/heap_5.c ****             mtCOVERAGE_TEST_MARKER();
 329:Source/FreeRTOS/portable/MemMang/heap_5.c ****         }
 330:Source/FreeRTOS/portable/MemMang/heap_5.c ****     }
 331:Source/FreeRTOS/portable/MemMang/heap_5.c **** }
 559              		.loc 1 331 1
 560 0200 00BF     		nop	
 561 0202 05B0     		add	sp, sp, #20	@,,
 562              	.LCFI5:
 563              		.cfi_def_cfa_offset 4
 564              		@ sp needed	@
 565 0204 5DF804FB 		ldr	pc, [sp], #4	@
 566              	.L22:
ARM GAS  /tmp/ccX30Dk5.s 			page 17


 567              		.align	2
 568              	.L21:
 569 0208 1C000000 		.word	xBlockAllocatedBit
 570 020c 04000000 		.word	.LC0
 571 0210 30000000 		.word	.LC1
 572 0214 0C000000 		.word	xFreeBytesRemaining
 573 0218 18000000 		.word	xNumberOfSuccessfulFrees
 574              		.cfi_endproc
 575              	.LFE6:
 576              		.size	vPortFree, .-vPortFree
 577              		.align	1
 578              		.global	xPortGetFreeHeapSize
 579              		.syntax unified
 580              		.thumb
 581              		.thumb_func
 582              		.type	xPortGetFreeHeapSize, %function
 583              	xPortGetFreeHeapSize:
 584              	.LFB7:
 332:Source/FreeRTOS/portable/MemMang/heap_5.c **** /*-----------------------------------------------------------*/
 333:Source/FreeRTOS/portable/MemMang/heap_5.c **** 
 334:Source/FreeRTOS/portable/MemMang/heap_5.c **** size_t xPortGetFreeHeapSize( void )
 335:Source/FreeRTOS/portable/MemMang/heap_5.c **** {
 585              		.loc 1 335 1
 586              		.cfi_startproc
 587              		@ args = 0, pretend = 0, frame = 0
 588              		@ frame_needed = 0, uses_anonymous_args = 0
 589              		@ link register save eliminated.
 590              	@ Source/FreeRTOS/portable/MemMang/heap_5.c:336:     return xFreeBytesRemaining;
 336:Source/FreeRTOS/portable/MemMang/heap_5.c ****     return xFreeBytesRemaining;
 591              		.loc 1 336 12
 592 021c 014B     		ldr	r3, .L25	@ tmp115,
 593 021e 1B68     		ldr	r3, [r3]	@ _2, xFreeBytesRemaining
 594              	@ Source/FreeRTOS/portable/MemMang/heap_5.c:337: }
 337:Source/FreeRTOS/portable/MemMang/heap_5.c **** }
 595              		.loc 1 337 1
 596 0220 1846     		mov	r0, r3	@, <retval>
 597 0222 7047     		bx	lr	@
 598              	.L26:
 599              		.align	2
 600              	.L25:
 601 0224 0C000000 		.word	xFreeBytesRemaining
 602              		.cfi_endproc
 603              	.LFE7:
 604              		.size	xPortGetFreeHeapSize, .-xPortGetFreeHeapSize
 605              		.align	1
 606              		.global	xPortGetMinimumEverFreeHeapSize
 607              		.syntax unified
 608              		.thumb
 609              		.thumb_func
 610              		.type	xPortGetMinimumEverFreeHeapSize, %function
 611              	xPortGetMinimumEverFreeHeapSize:
 612              	.LFB8:
 338:Source/FreeRTOS/portable/MemMang/heap_5.c **** /*-----------------------------------------------------------*/
 339:Source/FreeRTOS/portable/MemMang/heap_5.c **** 
 340:Source/FreeRTOS/portable/MemMang/heap_5.c **** size_t xPortGetMinimumEverFreeHeapSize( void )
 341:Source/FreeRTOS/portable/MemMang/heap_5.c **** {
 613              		.loc 1 341 1
ARM GAS  /tmp/ccX30Dk5.s 			page 18


 614              		.cfi_startproc
 615              		@ args = 0, pretend = 0, frame = 0
 616              		@ frame_needed = 0, uses_anonymous_args = 0
 617              		@ link register save eliminated.
 618              	@ Source/FreeRTOS/portable/MemMang/heap_5.c:342:     return xMinimumEverFreeBytesRemaining;
 342:Source/FreeRTOS/portable/MemMang/heap_5.c ****     return xMinimumEverFreeBytesRemaining;
 619              		.loc 1 342 12
 620 0228 014B     		ldr	r3, .L29	@ tmp115,
 621 022a 1B68     		ldr	r3, [r3]	@ _2, xMinimumEverFreeBytesRemaining
 622              	@ Source/FreeRTOS/portable/MemMang/heap_5.c:343: }
 343:Source/FreeRTOS/portable/MemMang/heap_5.c **** }
 623              		.loc 1 343 1
 624 022c 1846     		mov	r0, r3	@, <retval>
 625 022e 7047     		bx	lr	@
 626              	.L30:
 627              		.align	2
 628              	.L29:
 629 0230 10000000 		.word	xMinimumEverFreeBytesRemaining
 630              		.cfi_endproc
 631              	.LFE8:
 632              		.size	xPortGetMinimumEverFreeHeapSize, .-xPortGetMinimumEverFreeHeapSize
 633              		.align	1
 634              		.syntax unified
 635              		.thumb
 636              		.thumb_func
 637              		.type	prvInsertBlockIntoFreeList, %function
 638              	prvInsertBlockIntoFreeList:
 639              	.LFB9:
 344:Source/FreeRTOS/portable/MemMang/heap_5.c **** /*-----------------------------------------------------------*/
 345:Source/FreeRTOS/portable/MemMang/heap_5.c **** 
 346:Source/FreeRTOS/portable/MemMang/heap_5.c **** static void prvInsertBlockIntoFreeList( BlockLink_t * pxBlockToInsert )
 347:Source/FreeRTOS/portable/MemMang/heap_5.c **** {
 640              		.loc 1 347 1
 641              		.cfi_startproc
 642              		@ args = 0, pretend = 0, frame = 16
 643              		@ frame_needed = 0, uses_anonymous_args = 0
 644              		@ link register save eliminated.
 645 0234 84B0     		sub	sp, sp, #16	@,,
 646              	.LCFI6:
 647              		.cfi_def_cfa_offset 16
 648 0236 0190     		str	r0, [sp, #4]	@ pxBlockToInsert, pxBlockToInsert
 649              	@ Source/FreeRTOS/portable/MemMang/heap_5.c:353:     for( pxIterator = &xStart; pxIterator->pxNextF
 348:Source/FreeRTOS/portable/MemMang/heap_5.c ****     BlockLink_t * pxIterator;
 349:Source/FreeRTOS/portable/MemMang/heap_5.c ****     uint8_t * puc;
 350:Source/FreeRTOS/portable/MemMang/heap_5.c **** 
 351:Source/FreeRTOS/portable/MemMang/heap_5.c ****     /* Iterate through the list until a block is found that has a higher address
 352:Source/FreeRTOS/portable/MemMang/heap_5.c ****      * than the block being inserted. */
 353:Source/FreeRTOS/portable/MemMang/heap_5.c ****     for( pxIterator = &xStart; pxIterator->pxNextFreeBlock < pxBlockToInsert; pxIterator = pxIterat
 650              		.loc 1 353 21
 651 0238 264B     		ldr	r3, .L40	@ tmp132,
 652 023a 0393     		str	r3, [sp, #12]	@ tmp132, pxIterator
 653              	@ Source/FreeRTOS/portable/MemMang/heap_5.c:353:     for( pxIterator = &xStart; pxIterator->pxNextF
 654              		.loc 1 353 5
 655 023c 02E0     		b	.L32		@
 656              	.L33:
 657              	@ Source/FreeRTOS/portable/MemMang/heap_5.c:353:     for( pxIterator = &xStart; pxIterator->pxNextF
 658              		.loc 1 353 90 discriminator 3
ARM GAS  /tmp/ccX30Dk5.s 			page 19


 659 023e 039B     		ldr	r3, [sp, #12]	@ tmp133, pxIterator
 660 0240 1B68     		ldr	r3, [r3]	@ tmp134, pxIterator_21->pxNextFreeBlock
 661 0242 0393     		str	r3, [sp, #12]	@ tmp134, pxIterator
 662              	.L32:
 663              	@ Source/FreeRTOS/portable/MemMang/heap_5.c:353:     for( pxIterator = &xStart; pxIterator->pxNextF
 664              		.loc 1 353 42 discriminator 1
 665 0244 039B     		ldr	r3, [sp, #12]	@ tmp135, pxIterator
 666 0246 1B68     		ldr	r3, [r3]	@ _1, pxIterator_21->pxNextFreeBlock
 667              	@ Source/FreeRTOS/portable/MemMang/heap_5.c:353:     for( pxIterator = &xStart; pxIterator->pxNextF
 668              		.loc 1 353 5 discriminator 1
 669 0248 019A     		ldr	r2, [sp, #4]	@ tmp136, pxBlockToInsert
 670 024a 9A42     		cmp	r2, r3	@ tmp136, _1
 671 024c F7D8     		bhi	.L33		@,
 672              	@ Source/FreeRTOS/portable/MemMang/heap_5.c:360:     puc = ( uint8_t * ) pxIterator;
 354:Source/FreeRTOS/portable/MemMang/heap_5.c ****     {
 355:Source/FreeRTOS/portable/MemMang/heap_5.c ****         /* Nothing to do here, just iterate to the right position. */
 356:Source/FreeRTOS/portable/MemMang/heap_5.c ****     }
 357:Source/FreeRTOS/portable/MemMang/heap_5.c **** 
 358:Source/FreeRTOS/portable/MemMang/heap_5.c ****     /* Do the block being inserted, and the block it is being inserted after
 359:Source/FreeRTOS/portable/MemMang/heap_5.c ****      * make a contiguous block of memory? */
 360:Source/FreeRTOS/portable/MemMang/heap_5.c ****     puc = ( uint8_t * ) pxIterator;
 673              		.loc 1 360 9
 674 024e 039B     		ldr	r3, [sp, #12]	@ tmp137, pxIterator
 675 0250 0293     		str	r3, [sp, #8]	@ tmp137, puc
 676              	@ Source/FreeRTOS/portable/MemMang/heap_5.c:362:     if( ( puc + pxIterator->xBlockSize ) == ( uint
 361:Source/FreeRTOS/portable/MemMang/heap_5.c **** 
 362:Source/FreeRTOS/portable/MemMang/heap_5.c ****     if( ( puc + pxIterator->xBlockSize ) == ( uint8_t * ) pxBlockToInsert )
 677              		.loc 1 362 27
 678 0252 039B     		ldr	r3, [sp, #12]	@ tmp138, pxIterator
 679 0254 5B68     		ldr	r3, [r3, #4]	@ _2, pxIterator_21->xBlockSize
 680              	@ Source/FreeRTOS/portable/MemMang/heap_5.c:362:     if( ( puc + pxIterator->xBlockSize ) == ( uint
 681              		.loc 1 362 15
 682 0256 029A     		ldr	r2, [sp, #8]	@ tmp139, puc
 683 0258 1344     		add	r3, r3, r2	@ _3, tmp139
 684              	@ Source/FreeRTOS/portable/MemMang/heap_5.c:362:     if( ( puc + pxIterator->xBlockSize ) == ( uint
 685              		.loc 1 362 7
 686 025a 019A     		ldr	r2, [sp, #4]	@ tmp140, pxBlockToInsert
 687 025c 9A42     		cmp	r2, r3	@ tmp140, _3
 688 025e 08D1     		bne	.L34		@,
 689              	@ Source/FreeRTOS/portable/MemMang/heap_5.c:364:         pxIterator->xBlockSize += pxBlockToInsert-
 363:Source/FreeRTOS/portable/MemMang/heap_5.c ****     {
 364:Source/FreeRTOS/portable/MemMang/heap_5.c ****         pxIterator->xBlockSize += pxBlockToInsert->xBlockSize;
 690              		.loc 1 364 32
 691 0260 039B     		ldr	r3, [sp, #12]	@ tmp141, pxIterator
 692 0262 5A68     		ldr	r2, [r3, #4]	@ _4, pxIterator_21->xBlockSize
 693              	@ Source/FreeRTOS/portable/MemMang/heap_5.c:364:         pxIterator->xBlockSize += pxBlockToInsert-
 694              		.loc 1 364 50
 695 0264 019B     		ldr	r3, [sp, #4]	@ tmp142, pxBlockToInsert
 696 0266 5B68     		ldr	r3, [r3, #4]	@ _5, pxBlockToInsert_27(D)->xBlockSize
 697              	@ Source/FreeRTOS/portable/MemMang/heap_5.c:364:         pxIterator->xBlockSize += pxBlockToInsert-
 698              		.loc 1 364 32
 699 0268 1A44     		add	r2, r2, r3	@ _6, _5
 700 026a 039B     		ldr	r3, [sp, #12]	@ tmp143, pxIterator
 701 026c 5A60     		str	r2, [r3, #4]	@ _6, pxIterator_21->xBlockSize
 702              	@ Source/FreeRTOS/portable/MemMang/heap_5.c:365:         pxBlockToInsert = pxIterator;
 365:Source/FreeRTOS/portable/MemMang/heap_5.c ****         pxBlockToInsert = pxIterator;
 703              		.loc 1 365 25
ARM GAS  /tmp/ccX30Dk5.s 			page 20


 704 026e 039B     		ldr	r3, [sp, #12]	@ tmp144, pxIterator
 705 0270 0193     		str	r3, [sp, #4]	@ tmp144, pxBlockToInsert
 706              	.L34:
 707              	@ Source/FreeRTOS/portable/MemMang/heap_5.c:374:     puc = ( uint8_t * ) pxBlockToInsert;
 366:Source/FreeRTOS/portable/MemMang/heap_5.c ****     }
 367:Source/FreeRTOS/portable/MemMang/heap_5.c ****     else
 368:Source/FreeRTOS/portable/MemMang/heap_5.c ****     {
 369:Source/FreeRTOS/portable/MemMang/heap_5.c ****         mtCOVERAGE_TEST_MARKER();
 370:Source/FreeRTOS/portable/MemMang/heap_5.c ****     }
 371:Source/FreeRTOS/portable/MemMang/heap_5.c **** 
 372:Source/FreeRTOS/portable/MemMang/heap_5.c ****     /* Do the block being inserted, and the block it is being inserted before
 373:Source/FreeRTOS/portable/MemMang/heap_5.c ****      * make a contiguous block of memory? */
 374:Source/FreeRTOS/portable/MemMang/heap_5.c ****     puc = ( uint8_t * ) pxBlockToInsert;
 708              		.loc 1 374 9
 709 0272 019B     		ldr	r3, [sp, #4]	@ tmp145, pxBlockToInsert
 710 0274 0293     		str	r3, [sp, #8]	@ tmp145, puc
 711              	@ Source/FreeRTOS/portable/MemMang/heap_5.c:376:     if( ( puc + pxBlockToInsert->xBlockSize ) == (
 375:Source/FreeRTOS/portable/MemMang/heap_5.c **** 
 376:Source/FreeRTOS/portable/MemMang/heap_5.c ****     if( ( puc + pxBlockToInsert->xBlockSize ) == ( uint8_t * ) pxIterator->pxNextFreeBlock )
 712              		.loc 1 376 32
 713 0276 019B     		ldr	r3, [sp, #4]	@ tmp146, pxBlockToInsert
 714 0278 5B68     		ldr	r3, [r3, #4]	@ _7, pxBlockToInsert_20->xBlockSize
 715              	@ Source/FreeRTOS/portable/MemMang/heap_5.c:376:     if( ( puc + pxBlockToInsert->xBlockSize ) == (
 716              		.loc 1 376 15
 717 027a 029A     		ldr	r2, [sp, #8]	@ tmp147, puc
 718 027c 1A44     		add	r2, r2, r3	@ _8, _7
 719              	@ Source/FreeRTOS/portable/MemMang/heap_5.c:376:     if( ( puc + pxBlockToInsert->xBlockSize ) == (
 720              		.loc 1 376 74
 721 027e 039B     		ldr	r3, [sp, #12]	@ tmp148, pxIterator
 722 0280 1B68     		ldr	r3, [r3]	@ _9, pxIterator_21->pxNextFreeBlock
 723              	@ Source/FreeRTOS/portable/MemMang/heap_5.c:376:     if( ( puc + pxBlockToInsert->xBlockSize ) == (
 724              		.loc 1 376 7
 725 0282 9A42     		cmp	r2, r3	@ _8, _9
 726 0284 18D1     		bne	.L35		@,
 727              	@ Source/FreeRTOS/portable/MemMang/heap_5.c:378:         if( pxIterator->pxNextFreeBlock != pxEnd )
 377:Source/FreeRTOS/portable/MemMang/heap_5.c ****     {
 378:Source/FreeRTOS/portable/MemMang/heap_5.c ****         if( pxIterator->pxNextFreeBlock != pxEnd )
 728              		.loc 1 378 23
 729 0286 039B     		ldr	r3, [sp, #12]	@ tmp149, pxIterator
 730 0288 1A68     		ldr	r2, [r3]	@ _10, pxIterator_21->pxNextFreeBlock
 731              	@ Source/FreeRTOS/portable/MemMang/heap_5.c:378:         if( pxIterator->pxNextFreeBlock != pxEnd )
 732              		.loc 1 378 41
 733 028a 134B     		ldr	r3, .L40+4	@ tmp150,
 734 028c 1B68     		ldr	r3, [r3]	@ pxEnd.20_11, pxEnd
 735              	@ Source/FreeRTOS/portable/MemMang/heap_5.c:378:         if( pxIterator->pxNextFreeBlock != pxEnd )
 736              		.loc 1 378 11
 737 028e 9A42     		cmp	r2, r3	@ _10, pxEnd.20_11
 738 0290 0DD0     		beq	.L36		@,
 739              	@ Source/FreeRTOS/portable/MemMang/heap_5.c:381:             pxBlockToInsert->xBlockSize += pxItera
 379:Source/FreeRTOS/portable/MemMang/heap_5.c ****         {
 380:Source/FreeRTOS/portable/MemMang/heap_5.c ****             /* Form one big block from the two blocks. */
 381:Source/FreeRTOS/portable/MemMang/heap_5.c ****             pxBlockToInsert->xBlockSize += pxIterator->pxNextFreeBlock->xBlockSize;
 740              		.loc 1 381 41
 741 0292 019B     		ldr	r3, [sp, #4]	@ tmp151, pxBlockToInsert
 742 0294 5A68     		ldr	r2, [r3, #4]	@ _12, pxBlockToInsert_20->xBlockSize
 743              	@ Source/FreeRTOS/portable/MemMang/heap_5.c:381:             pxBlockToInsert->xBlockSize += pxItera
 744              		.loc 1 381 54
ARM GAS  /tmp/ccX30Dk5.s 			page 21


 745 0296 039B     		ldr	r3, [sp, #12]	@ tmp152, pxIterator
 746 0298 1B68     		ldr	r3, [r3]	@ _13, pxIterator_21->pxNextFreeBlock
 747              	@ Source/FreeRTOS/portable/MemMang/heap_5.c:381:             pxBlockToInsert->xBlockSize += pxItera
 748              		.loc 1 381 71
 749 029a 5B68     		ldr	r3, [r3, #4]	@ _14, _13->xBlockSize
 750              	@ Source/FreeRTOS/portable/MemMang/heap_5.c:381:             pxBlockToInsert->xBlockSize += pxItera
 751              		.loc 1 381 41
 752 029c 1A44     		add	r2, r2, r3	@ _15, _14
 753 029e 019B     		ldr	r3, [sp, #4]	@ tmp153, pxBlockToInsert
 754 02a0 5A60     		str	r2, [r3, #4]	@ _15, pxBlockToInsert_20->xBlockSize
 755              	@ Source/FreeRTOS/portable/MemMang/heap_5.c:382:             pxBlockToInsert->pxNextFreeBlock = pxI
 382:Source/FreeRTOS/portable/MemMang/heap_5.c ****             pxBlockToInsert->pxNextFreeBlock = pxIterator->pxNextFreeBlock->pxNextFreeBlock;
 756              		.loc 1 382 58
 757 02a2 039B     		ldr	r3, [sp, #12]	@ tmp154, pxIterator
 758 02a4 1B68     		ldr	r3, [r3]	@ _16, pxIterator_21->pxNextFreeBlock
 759              	@ Source/FreeRTOS/portable/MemMang/heap_5.c:382:             pxBlockToInsert->pxNextFreeBlock = pxI
 760              		.loc 1 382 75
 761 02a6 1A68     		ldr	r2, [r3]	@ _17, _16->pxNextFreeBlock
 762              	@ Source/FreeRTOS/portable/MemMang/heap_5.c:382:             pxBlockToInsert->pxNextFreeBlock = pxI
 763              		.loc 1 382 46
 764 02a8 019B     		ldr	r3, [sp, #4]	@ tmp155, pxBlockToInsert
 765 02aa 1A60     		str	r2, [r3]	@ _17, pxBlockToInsert_20->pxNextFreeBlock
 766 02ac 08E0     		b	.L37		@
 767              	.L36:
 768              	@ Source/FreeRTOS/portable/MemMang/heap_5.c:386:             pxBlockToInsert->pxNextFreeBlock = pxE
 383:Source/FreeRTOS/portable/MemMang/heap_5.c ****         }
 384:Source/FreeRTOS/portable/MemMang/heap_5.c ****         else
 385:Source/FreeRTOS/portable/MemMang/heap_5.c ****         {
 386:Source/FreeRTOS/portable/MemMang/heap_5.c ****             pxBlockToInsert->pxNextFreeBlock = pxEnd;
 769              		.loc 1 386 46
 770 02ae 0A4B     		ldr	r3, .L40+4	@ tmp156,
 771 02b0 1A68     		ldr	r2, [r3]	@ pxEnd.21_18, pxEnd
 772 02b2 019B     		ldr	r3, [sp, #4]	@ tmp157, pxBlockToInsert
 773 02b4 1A60     		str	r2, [r3]	@ pxEnd.21_18, pxBlockToInsert_20->pxNextFreeBlock
 774 02b6 03E0     		b	.L37		@
 775              	.L35:
 776              	@ Source/FreeRTOS/portable/MemMang/heap_5.c:391:         pxBlockToInsert->pxNextFreeBlock = pxItera
 387:Source/FreeRTOS/portable/MemMang/heap_5.c ****         }
 388:Source/FreeRTOS/portable/MemMang/heap_5.c ****     }
 389:Source/FreeRTOS/portable/MemMang/heap_5.c ****     else
 390:Source/FreeRTOS/portable/MemMang/heap_5.c ****     {
 391:Source/FreeRTOS/portable/MemMang/heap_5.c ****         pxBlockToInsert->pxNextFreeBlock = pxIterator->pxNextFreeBlock;
 777              		.loc 1 391 54
 778 02b8 039B     		ldr	r3, [sp, #12]	@ tmp158, pxIterator
 779 02ba 1A68     		ldr	r2, [r3]	@ _19, pxIterator_21->pxNextFreeBlock
 780              	@ Source/FreeRTOS/portable/MemMang/heap_5.c:391:         pxBlockToInsert->pxNextFreeBlock = pxItera
 781              		.loc 1 391 42
 782 02bc 019B     		ldr	r3, [sp, #4]	@ tmp159, pxBlockToInsert
 783 02be 1A60     		str	r2, [r3]	@ _19, pxBlockToInsert_20->pxNextFreeBlock
 784              	.L37:
 785              	@ Source/FreeRTOS/portable/MemMang/heap_5.c:398:     if( pxIterator != pxBlockToInsert )
 392:Source/FreeRTOS/portable/MemMang/heap_5.c ****     }
 393:Source/FreeRTOS/portable/MemMang/heap_5.c **** 
 394:Source/FreeRTOS/portable/MemMang/heap_5.c ****     /* If the block being inserted plugged a gab, so was merged with the block
 395:Source/FreeRTOS/portable/MemMang/heap_5.c ****      * before and the block after, then it's pxNextFreeBlock pointer will have
 396:Source/FreeRTOS/portable/MemMang/heap_5.c ****      * already been set, and should not be set here as that would make it point
 397:Source/FreeRTOS/portable/MemMang/heap_5.c ****      * to itself. */
ARM GAS  /tmp/ccX30Dk5.s 			page 22


 398:Source/FreeRTOS/portable/MemMang/heap_5.c ****     if( pxIterator != pxBlockToInsert )
 786              		.loc 1 398 7
 787 02c0 039A     		ldr	r2, [sp, #12]	@ tmp160, pxIterator
 788 02c2 019B     		ldr	r3, [sp, #4]	@ tmp161, pxBlockToInsert
 789 02c4 9A42     		cmp	r2, r3	@ tmp160, tmp161
 790 02c6 02D0     		beq	.L39		@,
 791              	@ Source/FreeRTOS/portable/MemMang/heap_5.c:400:         pxIterator->pxNextFreeBlock = pxBlockToIns
 399:Source/FreeRTOS/portable/MemMang/heap_5.c ****     {
 400:Source/FreeRTOS/portable/MemMang/heap_5.c ****         pxIterator->pxNextFreeBlock = pxBlockToInsert;
 792              		.loc 1 400 37
 793 02c8 039B     		ldr	r3, [sp, #12]	@ tmp162, pxIterator
 794 02ca 019A     		ldr	r2, [sp, #4]	@ tmp163, pxBlockToInsert
 795 02cc 1A60     		str	r2, [r3]	@ tmp163, pxIterator_21->pxNextFreeBlock
 796              	.L39:
 797              	@ Source/FreeRTOS/portable/MemMang/heap_5.c:406: }
 401:Source/FreeRTOS/portable/MemMang/heap_5.c ****     }
 402:Source/FreeRTOS/portable/MemMang/heap_5.c ****     else
 403:Source/FreeRTOS/portable/MemMang/heap_5.c ****     {
 404:Source/FreeRTOS/portable/MemMang/heap_5.c ****         mtCOVERAGE_TEST_MARKER();
 405:Source/FreeRTOS/portable/MemMang/heap_5.c ****     }
 406:Source/FreeRTOS/portable/MemMang/heap_5.c **** }
 798              		.loc 1 406 1
 799 02ce 00BF     		nop	
 800 02d0 04B0     		add	sp, sp, #16	@,,
 801              	.LCFI7:
 802              		.cfi_def_cfa_offset 0
 803              		@ sp needed	@
 804 02d2 7047     		bx	lr	@
 805              	.L41:
 806              		.align	2
 807              	.L40:
 808 02d4 00000000 		.word	xStart
 809 02d8 08000000 		.word	pxEnd
 810              		.cfi_endproc
 811              	.LFE9:
 812              		.size	prvInsertBlockIntoFreeList, .-prvInsertBlockIntoFreeList
 813              		.align	1
 814              		.global	vPortDefineHeapRegions
 815              		.syntax unified
 816              		.thumb
 817              		.thumb_func
 818              		.type	vPortDefineHeapRegions, %function
 819              	vPortDefineHeapRegions:
 820              	.LFB10:
 407:Source/FreeRTOS/portable/MemMang/heap_5.c **** /*-----------------------------------------------------------*/
 408:Source/FreeRTOS/portable/MemMang/heap_5.c **** 
 409:Source/FreeRTOS/portable/MemMang/heap_5.c **** void vPortDefineHeapRegions( const HeapRegion_t * const pxHeapRegions )
 410:Source/FreeRTOS/portable/MemMang/heap_5.c **** {
 821              		.loc 1 410 1
 822              		.cfi_startproc
 823              		@ args = 0, pretend = 0, frame = 40
 824              		@ frame_needed = 0, uses_anonymous_args = 0
 825 02dc 00B5     		push	{lr}	@
 826              	.LCFI8:
 827              		.cfi_def_cfa_offset 4
 828              		.cfi_offset 14, -4
 829 02de 8BB0     		sub	sp, sp, #44	@,,
ARM GAS  /tmp/ccX30Dk5.s 			page 23


 830              	.LCFI9:
 831              		.cfi_def_cfa_offset 48
 832 02e0 0190     		str	r0, [sp, #4]	@ pxHeapRegions, pxHeapRegions
 833              	@ Source/FreeRTOS/portable/MemMang/heap_5.c:411:     BlockLink_t * pxFirstFreeBlockInRegion = NULL,
 411:Source/FreeRTOS/portable/MemMang/heap_5.c ****     BlockLink_t * pxFirstFreeBlockInRegion = NULL, * pxPreviousFreeBlock;
 834              		.loc 1 411 19
 835 02e2 0023     		movs	r3, #0	@ tmp136,
 836 02e4 0493     		str	r3, [sp, #16]	@ tmp136, pxFirstFreeBlockInRegion
 837              	@ Source/FreeRTOS/portable/MemMang/heap_5.c:413:     size_t xTotalRegionSize, xTotalHeapSize = 0;
 412:Source/FreeRTOS/portable/MemMang/heap_5.c ****     size_t xAlignedHeap;
 413:Source/FreeRTOS/portable/MemMang/heap_5.c ****     size_t xTotalRegionSize, xTotalHeapSize = 0;
 838              		.loc 1 413 30
 839 02e6 0023     		movs	r3, #0	@ tmp137,
 840 02e8 0893     		str	r3, [sp, #32]	@ tmp137, xTotalHeapSize
 841              	@ Source/FreeRTOS/portable/MemMang/heap_5.c:414:     BaseType_t xDefinedRegions = 0;
 414:Source/FreeRTOS/portable/MemMang/heap_5.c ****     BaseType_t xDefinedRegions = 0;
 842              		.loc 1 414 16
 843 02ea 0023     		movs	r3, #0	@ tmp138,
 844 02ec 0793     		str	r3, [sp, #28]	@ tmp138, xDefinedRegions
 845              	@ Source/FreeRTOS/portable/MemMang/heap_5.c:419:     configASSERT( pxEnd == NULL );
 415:Source/FreeRTOS/portable/MemMang/heap_5.c ****     size_t xAddress;
 416:Source/FreeRTOS/portable/MemMang/heap_5.c ****     const HeapRegion_t * pxHeapRegion;
 417:Source/FreeRTOS/portable/MemMang/heap_5.c **** 
 418:Source/FreeRTOS/portable/MemMang/heap_5.c ****     /* Can only call once! */
 419:Source/FreeRTOS/portable/MemMang/heap_5.c ****     configASSERT( pxEnd == NULL );
 846              		.loc 1 419 5
 847 02ee 4F4B     		ldr	r3, .L52	@ tmp139,
 848 02f0 1B68     		ldr	r3, [r3]	@ pxEnd.22_1, pxEnd
 849 02f2 002B     		cmp	r3, #0	@ pxEnd.22_1,
 850 02f4 05D0     		beq	.L43		@,
 851              	.LBB5:
 852              	@ Source/FreeRTOS/portable/MemMang/heap_5.c:419:     configASSERT( pxEnd == NULL );
 853              		.loc 1 419 5 is_stmt 0 discriminator 1
 854 02f6 40F2A312 		movw	r2, #419	@,
 855 02fa 4D49     		ldr	r1, .L52+4	@,
 856 02fc 4D48     		ldr	r0, .L52+8	@,
 857 02fe FFF7FEFF 		bl	printf		@
 858              	.L43:
 859              	.LBE5:
 860              	@ Source/FreeRTOS/portable/MemMang/heap_5.c:421:     pxHeapRegion = &( pxHeapRegions[ xDefinedRegio
 420:Source/FreeRTOS/portable/MemMang/heap_5.c **** 
 421:Source/FreeRTOS/portable/MemMang/heap_5.c ****     pxHeapRegion = &( pxHeapRegions[ xDefinedRegions ] );
 861              		.loc 1 421 36 is_stmt 1
 862 0302 079B     		ldr	r3, [sp, #28]	@ xDefinedRegions.23_2, xDefinedRegions
 863 0304 DB00     		lsls	r3, r3, #3	@ _3, xDefinedRegions.23_2,
 864              	@ Source/FreeRTOS/portable/MemMang/heap_5.c:421:     pxHeapRegion = &( pxHeapRegions[ xDefinedRegio
 865              		.loc 1 421 18
 866 0306 019A     		ldr	r2, [sp, #4]	@ tmp141, pxHeapRegions
 867 0308 1344     		add	r3, r3, r2	@ tmp140, tmp141
 868 030a 0593     		str	r3, [sp, #20]	@ tmp140, pxHeapRegion
 869              	@ Source/FreeRTOS/portable/MemMang/heap_5.c:423:     while( pxHeapRegion->xSizeInBytes > 0 )
 422:Source/FreeRTOS/portable/MemMang/heap_5.c **** 
 423:Source/FreeRTOS/portable/MemMang/heap_5.c ****     while( pxHeapRegion->xSizeInBytes > 0 )
 870              		.loc 1 423 10
 871 030c 73E0     		b	.L44		@
 872              	.L50:
 873              	@ Source/FreeRTOS/portable/MemMang/heap_5.c:425:         xTotalRegionSize = pxHeapRegion->xSizeInBy
ARM GAS  /tmp/ccX30Dk5.s 			page 24


 424:Source/FreeRTOS/portable/MemMang/heap_5.c ****     {
 425:Source/FreeRTOS/portable/MemMang/heap_5.c ****         xTotalRegionSize = pxHeapRegion->xSizeInBytes;
 874              		.loc 1 425 26
 875 030e 059B     		ldr	r3, [sp, #20]	@ tmp142, pxHeapRegion
 876 0310 5B68     		ldr	r3, [r3, #4]	@ tmp143, pxHeapRegion_28->xSizeInBytes
 877 0312 0993     		str	r3, [sp, #36]	@ tmp143, xTotalRegionSize
 878              	@ Source/FreeRTOS/portable/MemMang/heap_5.c:428:         xAddress = ( size_t ) pxHeapRegion->pucSta
 426:Source/FreeRTOS/portable/MemMang/heap_5.c **** 
 427:Source/FreeRTOS/portable/MemMang/heap_5.c ****         /* Ensure the heap region starts on a correctly aligned boundary. */
 428:Source/FreeRTOS/portable/MemMang/heap_5.c ****         xAddress = ( size_t ) pxHeapRegion->pucStartAddress;
 879              		.loc 1 428 43
 880 0314 059B     		ldr	r3, [sp, #20]	@ tmp144, pxHeapRegion
 881 0316 1B68     		ldr	r3, [r3]	@ _4, pxHeapRegion_28->pucStartAddress
 882              	@ Source/FreeRTOS/portable/MemMang/heap_5.c:428:         xAddress = ( size_t ) pxHeapRegion->pucSta
 883              		.loc 1 428 18
 884 0318 0693     		str	r3, [sp, #24]	@ _4, xAddress
 885              	@ Source/FreeRTOS/portable/MemMang/heap_5.c:430:         if( ( xAddress & portBYTE_ALIGNMENT_MASK )
 429:Source/FreeRTOS/portable/MemMang/heap_5.c **** 
 430:Source/FreeRTOS/portable/MemMang/heap_5.c ****         if( ( xAddress & portBYTE_ALIGNMENT_MASK ) != 0 )
 886              		.loc 1 430 24
 887 031a 069B     		ldr	r3, [sp, #24]	@ tmp145, xAddress
 888 031c 03F00703 		and	r3, r3, #7	@ _5, tmp145,
 889              	@ Source/FreeRTOS/portable/MemMang/heap_5.c:430:         if( ( xAddress & portBYTE_ALIGNMENT_MASK )
 890              		.loc 1 430 11
 891 0320 002B     		cmp	r3, #0	@ _5,
 892 0322 0ED0     		beq	.L45		@,
 893              	@ Source/FreeRTOS/portable/MemMang/heap_5.c:432:             xAddress += ( portBYTE_ALIGNMENT - 1 )
 431:Source/FreeRTOS/portable/MemMang/heap_5.c ****         {
 432:Source/FreeRTOS/portable/MemMang/heap_5.c ****             xAddress += ( portBYTE_ALIGNMENT - 1 );
 894              		.loc 1 432 22
 895 0324 069B     		ldr	r3, [sp, #24]	@ tmp147, xAddress
 896 0326 0733     		adds	r3, r3, #7	@ tmp146, tmp147,
 897 0328 0693     		str	r3, [sp, #24]	@ tmp146, xAddress
 898              	@ Source/FreeRTOS/portable/MemMang/heap_5.c:433:             xAddress &= ~portBYTE_ALIGNMENT_MASK;
 433:Source/FreeRTOS/portable/MemMang/heap_5.c ****             xAddress &= ~portBYTE_ALIGNMENT_MASK;
 899              		.loc 1 433 22
 900 032a 069B     		ldr	r3, [sp, #24]	@ tmp149, xAddress
 901 032c 23F00703 		bic	r3, r3, #7	@ tmp148, tmp149,
 902 0330 0693     		str	r3, [sp, #24]	@ tmp148, xAddress
 903              	@ Source/FreeRTOS/portable/MemMang/heap_5.c:436:             xTotalRegionSize -= xAddress - ( size_
 434:Source/FreeRTOS/portable/MemMang/heap_5.c **** 
 435:Source/FreeRTOS/portable/MemMang/heap_5.c ****             /* Adjust the size for the bytes lost to alignment. */
 436:Source/FreeRTOS/portable/MemMang/heap_5.c ****             xTotalRegionSize -= xAddress - ( size_t ) pxHeapRegion->pucStartAddress;
 904              		.loc 1 436 67
 905 0332 059B     		ldr	r3, [sp, #20]	@ tmp150, pxHeapRegion
 906 0334 1B68     		ldr	r3, [r3]	@ _6, pxHeapRegion_28->pucStartAddress
 907              	@ Source/FreeRTOS/portable/MemMang/heap_5.c:436:             xTotalRegionSize -= xAddress - ( size_
 908              		.loc 1 436 44
 909 0336 1A46     		mov	r2, r3	@ _7, _6
 910              	@ Source/FreeRTOS/portable/MemMang/heap_5.c:436:             xTotalRegionSize -= xAddress - ( size_
 911              		.loc 1 436 30
 912 0338 069B     		ldr	r3, [sp, #24]	@ tmp151, xAddress
 913 033a D31A     		subs	r3, r2, r3	@ _8, _7, tmp151
 914 033c 099A     		ldr	r2, [sp, #36]	@ tmp153, xTotalRegionSize
 915 033e 1344     		add	r3, r3, r2	@ tmp152, tmp153
 916 0340 0993     		str	r3, [sp, #36]	@ tmp152, xTotalRegionSize
 917              	.L45:
ARM GAS  /tmp/ccX30Dk5.s 			page 25


 918              	@ Source/FreeRTOS/portable/MemMang/heap_5.c:439:         xAlignedHeap = xAddress;
 437:Source/FreeRTOS/portable/MemMang/heap_5.c ****         }
 438:Source/FreeRTOS/portable/MemMang/heap_5.c **** 
 439:Source/FreeRTOS/portable/MemMang/heap_5.c ****         xAlignedHeap = xAddress;
 919              		.loc 1 439 22
 920 0342 069B     		ldr	r3, [sp, #24]	@ tmp154, xAddress
 921 0344 0393     		str	r3, [sp, #12]	@ tmp154, xAlignedHeap
 922              	@ Source/FreeRTOS/portable/MemMang/heap_5.c:442:         if( xDefinedRegions == 0 )
 440:Source/FreeRTOS/portable/MemMang/heap_5.c **** 
 441:Source/FreeRTOS/portable/MemMang/heap_5.c ****         /* Set xStart if it has not already been set. */
 442:Source/FreeRTOS/portable/MemMang/heap_5.c ****         if( xDefinedRegions == 0 )
 923              		.loc 1 442 11
 924 0346 079B     		ldr	r3, [sp, #28]	@ tmp155, xDefinedRegions
 925 0348 002B     		cmp	r3, #0	@ tmp155,
 926 034a 06D1     		bne	.L46		@,
 927              	@ Source/FreeRTOS/portable/MemMang/heap_5.c:446:             xStart.pxNextFreeBlock = ( BlockLink_t
 443:Source/FreeRTOS/portable/MemMang/heap_5.c ****         {
 444:Source/FreeRTOS/portable/MemMang/heap_5.c ****             /* xStart is used to hold a pointer to the first item in the list of
 445:Source/FreeRTOS/portable/MemMang/heap_5.c ****              *  free blocks.  The void cast is used to prevent compiler warnings. */
 446:Source/FreeRTOS/portable/MemMang/heap_5.c ****             xStart.pxNextFreeBlock = ( BlockLink_t * ) xAlignedHeap;
 928              		.loc 1 446 38
 929 034c 039B     		ldr	r3, [sp, #12]	@ xAlignedHeap.24_9, xAlignedHeap
 930              	@ Source/FreeRTOS/portable/MemMang/heap_5.c:446:             xStart.pxNextFreeBlock = ( BlockLink_t
 931              		.loc 1 446 36
 932 034e 3A4A     		ldr	r2, .L52+12	@ tmp156,
 933 0350 1360     		str	r3, [r2]	@ xAlignedHeap.24_9, xStart.pxNextFreeBlock
 934              	@ Source/FreeRTOS/portable/MemMang/heap_5.c:447:             xStart.xBlockSize = ( size_t ) 0;
 447:Source/FreeRTOS/portable/MemMang/heap_5.c ****             xStart.xBlockSize = ( size_t ) 0;
 935              		.loc 1 447 31
 936 0352 394B     		ldr	r3, .L52+12	@ tmp157,
 937 0354 0022     		movs	r2, #0	@ tmp158,
 938 0356 5A60     		str	r2, [r3, #4]	@ tmp158, xStart.xBlockSize
 939 0358 15E0     		b	.L47		@
 940              	.L46:
 941              	@ Source/FreeRTOS/portable/MemMang/heap_5.c:453:             configASSERT( pxEnd != NULL );
 448:Source/FreeRTOS/portable/MemMang/heap_5.c ****         }
 449:Source/FreeRTOS/portable/MemMang/heap_5.c ****         else
 450:Source/FreeRTOS/portable/MemMang/heap_5.c ****         {
 451:Source/FreeRTOS/portable/MemMang/heap_5.c ****             /* Should only get here if one region has already been added to the
 452:Source/FreeRTOS/portable/MemMang/heap_5.c ****              * heap. */
 453:Source/FreeRTOS/portable/MemMang/heap_5.c ****             configASSERT( pxEnd != NULL );
 942              		.loc 1 453 13
 943 035a 344B     		ldr	r3, .L52	@ tmp159,
 944 035c 1B68     		ldr	r3, [r3]	@ pxEnd.25_10, pxEnd
 945 035e 002B     		cmp	r3, #0	@ pxEnd.25_10,
 946 0360 05D1     		bne	.L48		@,
 947              	.LBB6:
 948              	@ Source/FreeRTOS/portable/MemMang/heap_5.c:453:             configASSERT( pxEnd != NULL );
 949              		.loc 1 453 13 is_stmt 0 discriminator 1
 950 0362 40F2C512 		movw	r2, #453	@,
 951 0366 3249     		ldr	r1, .L52+4	@,
 952 0368 3248     		ldr	r0, .L52+8	@,
 953 036a FFF7FEFF 		bl	printf		@
 954              	.L48:
 955              	.LBE6:
 956              	@ Source/FreeRTOS/portable/MemMang/heap_5.c:456:             configASSERT( xAddress > ( size_t ) px
 454:Source/FreeRTOS/portable/MemMang/heap_5.c **** 
ARM GAS  /tmp/ccX30Dk5.s 			page 26


 455:Source/FreeRTOS/portable/MemMang/heap_5.c ****             /* Check blocks are passed in with increasing start addresses. */
 456:Source/FreeRTOS/portable/MemMang/heap_5.c ****             configASSERT( xAddress > ( size_t ) pxEnd );
 957              		.loc 1 456 13 is_stmt 1
 958 036e 2F4B     		ldr	r3, .L52	@ tmp160,
 959 0370 1B68     		ldr	r3, [r3]	@ pxEnd.26_11, pxEnd
 960 0372 1A46     		mov	r2, r3	@ pxEnd.27_12, pxEnd.26_11
 961 0374 069B     		ldr	r3, [sp, #24]	@ tmp161, xAddress
 962 0376 9342     		cmp	r3, r2	@ tmp161, pxEnd.27_12
 963 0378 05D8     		bhi	.L47		@,
 964              	.LBB7:
 965              	@ Source/FreeRTOS/portable/MemMang/heap_5.c:456:             configASSERT( xAddress > ( size_t ) px
 966              		.loc 1 456 13 is_stmt 0 discriminator 1
 967 037a 4FF4E472 		mov	r2, #456	@,
 968 037e 2C49     		ldr	r1, .L52+4	@,
 969 0380 2C48     		ldr	r0, .L52+8	@,
 970 0382 FFF7FEFF 		bl	printf		@
 971              	.L47:
 972              	.LBE7:
 973              	@ Source/FreeRTOS/portable/MemMang/heap_5.c:461:         pxPreviousFreeBlock = pxEnd;
 457:Source/FreeRTOS/portable/MemMang/heap_5.c ****         }
 458:Source/FreeRTOS/portable/MemMang/heap_5.c **** 
 459:Source/FreeRTOS/portable/MemMang/heap_5.c ****         /* Remember the location of the end marker in the previous region, if
 460:Source/FreeRTOS/portable/MemMang/heap_5.c ****          * any. */
 461:Source/FreeRTOS/portable/MemMang/heap_5.c ****         pxPreviousFreeBlock = pxEnd;
 974              		.loc 1 461 29 is_stmt 1
 975 0386 294B     		ldr	r3, .L52	@ tmp162,
 976 0388 1B68     		ldr	r3, [r3]	@ tmp163, pxEnd
 977 038a 0293     		str	r3, [sp, #8]	@ tmp163, pxPreviousFreeBlock
 978              	@ Source/FreeRTOS/portable/MemMang/heap_5.c:465:         xAddress = xAlignedHeap + xTotalRegionSize
 462:Source/FreeRTOS/portable/MemMang/heap_5.c **** 
 463:Source/FreeRTOS/portable/MemMang/heap_5.c ****         /* pxEnd is used to mark the end of the list of free blocks and is
 464:Source/FreeRTOS/portable/MemMang/heap_5.c ****          * inserted at the end of the region space. */
 465:Source/FreeRTOS/portable/MemMang/heap_5.c ****         xAddress = xAlignedHeap + xTotalRegionSize;
 979              		.loc 1 465 18
 980 038c 039A     		ldr	r2, [sp, #12]	@ tmp165, xAlignedHeap
 981 038e 099B     		ldr	r3, [sp, #36]	@ tmp166, xTotalRegionSize
 982 0390 1344     		add	r3, r3, r2	@ tmp164, tmp165
 983 0392 0693     		str	r3, [sp, #24]	@ tmp164, xAddress
 984              	@ Source/FreeRTOS/portable/MemMang/heap_5.c:466:         xAddress -= xHeapStructSize;
 466:Source/FreeRTOS/portable/MemMang/heap_5.c ****         xAddress -= xHeapStructSize;
 985              		.loc 1 466 18
 986 0394 0822     		movs	r2, #8	@ xHeapStructSize.28_13,
 987 0396 069B     		ldr	r3, [sp, #24]	@ tmp168, xAddress
 988 0398 9B1A     		subs	r3, r3, r2	@ tmp167, tmp168, xHeapStructSize.28_13
 989 039a 0693     		str	r3, [sp, #24]	@ tmp167, xAddress
 990              	@ Source/FreeRTOS/portable/MemMang/heap_5.c:467:         xAddress &= ~portBYTE_ALIGNMENT_MASK;
 467:Source/FreeRTOS/portable/MemMang/heap_5.c ****         xAddress &= ~portBYTE_ALIGNMENT_MASK;
 991              		.loc 1 467 18
 992 039c 069B     		ldr	r3, [sp, #24]	@ tmp170, xAddress
 993 039e 23F00703 		bic	r3, r3, #7	@ tmp169, tmp170,
 994 03a2 0693     		str	r3, [sp, #24]	@ tmp169, xAddress
 995              	@ Source/FreeRTOS/portable/MemMang/heap_5.c:468:         pxEnd = ( BlockLink_t * ) xAddress;
 468:Source/FreeRTOS/portable/MemMang/heap_5.c ****         pxEnd = ( BlockLink_t * ) xAddress;
 996              		.loc 1 468 17
 997 03a4 069B     		ldr	r3, [sp, #24]	@ xAddress.29_14, xAddress
 998              	@ Source/FreeRTOS/portable/MemMang/heap_5.c:468:         pxEnd = ( BlockLink_t * ) xAddress;
 999              		.loc 1 468 15
ARM GAS  /tmp/ccX30Dk5.s 			page 27


 1000 03a6 214A     		ldr	r2, .L52	@ tmp171,
 1001 03a8 1360     		str	r3, [r2]	@ xAddress.29_14, pxEnd
 1002              	@ Source/FreeRTOS/portable/MemMang/heap_5.c:469:         pxEnd->xBlockSize = 0;
 469:Source/FreeRTOS/portable/MemMang/heap_5.c ****         pxEnd->xBlockSize = 0;
 1003              		.loc 1 469 14
 1004 03aa 204B     		ldr	r3, .L52	@ tmp172,
 1005 03ac 1B68     		ldr	r3, [r3]	@ pxEnd.30_15, pxEnd
 1006              	@ Source/FreeRTOS/portable/MemMang/heap_5.c:469:         pxEnd->xBlockSize = 0;
 1007              		.loc 1 469 27
 1008 03ae 0022     		movs	r2, #0	@ tmp173,
 1009 03b0 5A60     		str	r2, [r3, #4]	@ tmp173, pxEnd.30_15->xBlockSize
 1010              	@ Source/FreeRTOS/portable/MemMang/heap_5.c:470:         pxEnd->pxNextFreeBlock = NULL;
 470:Source/FreeRTOS/portable/MemMang/heap_5.c ****         pxEnd->pxNextFreeBlock = NULL;
 1011              		.loc 1 470 14
 1012 03b2 1E4B     		ldr	r3, .L52	@ tmp174,
 1013 03b4 1B68     		ldr	r3, [r3]	@ pxEnd.31_16, pxEnd
 1014              	@ Source/FreeRTOS/portable/MemMang/heap_5.c:470:         pxEnd->pxNextFreeBlock = NULL;
 1015              		.loc 1 470 32
 1016 03b6 0022     		movs	r2, #0	@ tmp175,
 1017 03b8 1A60     		str	r2, [r3]	@ tmp175, pxEnd.31_16->pxNextFreeBlock
 1018              	@ Source/FreeRTOS/portable/MemMang/heap_5.c:475:         pxFirstFreeBlockInRegion = ( BlockLink_t *
 471:Source/FreeRTOS/portable/MemMang/heap_5.c **** 
 472:Source/FreeRTOS/portable/MemMang/heap_5.c ****         /* To start with there is a single free block in this region that is
 473:Source/FreeRTOS/portable/MemMang/heap_5.c ****          * sized to take up the entire heap region minus the space taken by the
 474:Source/FreeRTOS/portable/MemMang/heap_5.c ****          * free block structure. */
 475:Source/FreeRTOS/portable/MemMang/heap_5.c ****         pxFirstFreeBlockInRegion = ( BlockLink_t * ) xAlignedHeap;
 1019              		.loc 1 475 34
 1020 03ba 039B     		ldr	r3, [sp, #12]	@ tmp176, xAlignedHeap
 1021 03bc 0493     		str	r3, [sp, #16]	@ tmp176, pxFirstFreeBlockInRegion
 1022              	@ Source/FreeRTOS/portable/MemMang/heap_5.c:476:         pxFirstFreeBlockInRegion->xBlockSize = xAd
 476:Source/FreeRTOS/portable/MemMang/heap_5.c ****         pxFirstFreeBlockInRegion->xBlockSize = xAddress - ( size_t ) pxFirstFreeBlockInRegion;
 1023              		.loc 1 476 59
 1024 03be 049B     		ldr	r3, [sp, #16]	@ pxFirstFreeBlockInRegion.32_17, pxFirstFreeBlockInRegion
 1025              	@ Source/FreeRTOS/portable/MemMang/heap_5.c:476:         pxFirstFreeBlockInRegion->xBlockSize = xAd
 1026              		.loc 1 476 57
 1027 03c0 069A     		ldr	r2, [sp, #24]	@ tmp177, xAddress
 1028 03c2 D21A     		subs	r2, r2, r3	@ _18, tmp177, pxFirstFreeBlockInRegion.32_17
 1029              	@ Source/FreeRTOS/portable/MemMang/heap_5.c:476:         pxFirstFreeBlockInRegion->xBlockSize = xAd
 1030              		.loc 1 476 46
 1031 03c4 049B     		ldr	r3, [sp, #16]	@ tmp178, pxFirstFreeBlockInRegion
 1032 03c6 5A60     		str	r2, [r3, #4]	@ _18, pxFirstFreeBlockInRegion_63->xBlockSize
 1033              	@ Source/FreeRTOS/portable/MemMang/heap_5.c:477:         pxFirstFreeBlockInRegion->pxNextFreeBlock 
 477:Source/FreeRTOS/portable/MemMang/heap_5.c ****         pxFirstFreeBlockInRegion->pxNextFreeBlock = pxEnd;
 1034              		.loc 1 477 51
 1035 03c8 184B     		ldr	r3, .L52	@ tmp179,
 1036 03ca 1A68     		ldr	r2, [r3]	@ pxEnd.33_19, pxEnd
 1037 03cc 049B     		ldr	r3, [sp, #16]	@ tmp180, pxFirstFreeBlockInRegion
 1038 03ce 1A60     		str	r2, [r3]	@ pxEnd.33_19, pxFirstFreeBlockInRegion_63->pxNextFreeBlock
 1039              	@ Source/FreeRTOS/portable/MemMang/heap_5.c:481:         if( pxPreviousFreeBlock != NULL )
 478:Source/FreeRTOS/portable/MemMang/heap_5.c **** 
 479:Source/FreeRTOS/portable/MemMang/heap_5.c ****         /* If this is not the first region that makes up the entire heap space
 480:Source/FreeRTOS/portable/MemMang/heap_5.c ****          * then link the previous region to this region. */
 481:Source/FreeRTOS/portable/MemMang/heap_5.c ****         if( pxPreviousFreeBlock != NULL )
 1040              		.loc 1 481 11
 1041 03d0 029B     		ldr	r3, [sp, #8]	@ tmp181, pxPreviousFreeBlock
 1042 03d2 002B     		cmp	r3, #0	@ tmp181,
 1043 03d4 02D0     		beq	.L49		@,
ARM GAS  /tmp/ccX30Dk5.s 			page 28


 1044              	@ Source/FreeRTOS/portable/MemMang/heap_5.c:483:             pxPreviousFreeBlock->pxNextFreeBlock =
 482:Source/FreeRTOS/portable/MemMang/heap_5.c ****         {
 483:Source/FreeRTOS/portable/MemMang/heap_5.c ****             pxPreviousFreeBlock->pxNextFreeBlock = pxFirstFreeBlockInRegion;
 1045              		.loc 1 483 50
 1046 03d6 029B     		ldr	r3, [sp, #8]	@ tmp182, pxPreviousFreeBlock
 1047 03d8 049A     		ldr	r2, [sp, #16]	@ tmp183, pxFirstFreeBlockInRegion
 1048 03da 1A60     		str	r2, [r3]	@ tmp183, pxPreviousFreeBlock_56->pxNextFreeBlock
 1049              	.L49:
 1050              	@ Source/FreeRTOS/portable/MemMang/heap_5.c:486:         xTotalHeapSize += pxFirstFreeBlockInRegion
 484:Source/FreeRTOS/portable/MemMang/heap_5.c ****         }
 485:Source/FreeRTOS/portable/MemMang/heap_5.c **** 
 486:Source/FreeRTOS/portable/MemMang/heap_5.c ****         xTotalHeapSize += pxFirstFreeBlockInRegion->xBlockSize;
 1051              		.loc 1 486 51
 1052 03dc 049B     		ldr	r3, [sp, #16]	@ tmp184, pxFirstFreeBlockInRegion
 1053 03de 5B68     		ldr	r3, [r3, #4]	@ _20, pxFirstFreeBlockInRegion_63->xBlockSize
 1054              	@ Source/FreeRTOS/portable/MemMang/heap_5.c:486:         xTotalHeapSize += pxFirstFreeBlockInRegion
 1055              		.loc 1 486 24
 1056 03e0 089A     		ldr	r2, [sp, #32]	@ tmp186, xTotalHeapSize
 1057 03e2 1344     		add	r3, r3, r2	@ tmp185, tmp186
 1058 03e4 0893     		str	r3, [sp, #32]	@ tmp185, xTotalHeapSize
 1059              	@ Source/FreeRTOS/portable/MemMang/heap_5.c:489:         xDefinedRegions++;
 487:Source/FreeRTOS/portable/MemMang/heap_5.c **** 
 488:Source/FreeRTOS/portable/MemMang/heap_5.c ****         /* Move onto the next HeapRegion_t structure. */
 489:Source/FreeRTOS/portable/MemMang/heap_5.c ****         xDefinedRegions++;
 1060              		.loc 1 489 24
 1061 03e6 079B     		ldr	r3, [sp, #28]	@ tmp188, xDefinedRegions
 1062 03e8 0133     		adds	r3, r3, #1	@ tmp187, tmp188,
 1063 03ea 0793     		str	r3, [sp, #28]	@ tmp187, xDefinedRegions
 1064              	@ Source/FreeRTOS/portable/MemMang/heap_5.c:490:         pxHeapRegion = &( pxHeapRegions[ xDefinedR
 490:Source/FreeRTOS/portable/MemMang/heap_5.c ****         pxHeapRegion = &( pxHeapRegions[ xDefinedRegions ] );
 1065              		.loc 1 490 40
 1066 03ec 079B     		ldr	r3, [sp, #28]	@ xDefinedRegions.34_21, xDefinedRegions
 1067 03ee DB00     		lsls	r3, r3, #3	@ _22, xDefinedRegions.34_21,
 1068              	@ Source/FreeRTOS/portable/MemMang/heap_5.c:490:         pxHeapRegion = &( pxHeapRegions[ xDefinedR
 1069              		.loc 1 490 22
 1070 03f0 019A     		ldr	r2, [sp, #4]	@ tmp190, pxHeapRegions
 1071 03f2 1344     		add	r3, r3, r2	@ tmp189, tmp190
 1072 03f4 0593     		str	r3, [sp, #20]	@ tmp189, pxHeapRegion
 1073              	.L44:
 1074              	@ Source/FreeRTOS/portable/MemMang/heap_5.c:423:     while( pxHeapRegion->xSizeInBytes > 0 )
 423:Source/FreeRTOS/portable/MemMang/heap_5.c ****     {
 1075              		.loc 1 423 24
 1076 03f6 059B     		ldr	r3, [sp, #20]	@ tmp191, pxHeapRegion
 1077 03f8 5B68     		ldr	r3, [r3, #4]	@ _23, pxHeapRegion_28->xSizeInBytes
 1078              	@ Source/FreeRTOS/portable/MemMang/heap_5.c:423:     while( pxHeapRegion->xSizeInBytes > 0 )
 423:Source/FreeRTOS/portable/MemMang/heap_5.c ****     {
 1079              		.loc 1 423 10
 1080 03fa 002B     		cmp	r3, #0	@ _23,
 1081 03fc 87D1     		bne	.L50		@,
 1082              	@ Source/FreeRTOS/portable/MemMang/heap_5.c:493:     xMinimumEverFreeBytesRemaining = xTotalHeapSiz
 491:Source/FreeRTOS/portable/MemMang/heap_5.c ****     }
 492:Source/FreeRTOS/portable/MemMang/heap_5.c **** 
 493:Source/FreeRTOS/portable/MemMang/heap_5.c ****     xMinimumEverFreeBytesRemaining = xTotalHeapSize;
 1083              		.loc 1 493 36
 1084 03fe 0F4A     		ldr	r2, .L52+16	@ tmp192,
 1085 0400 089B     		ldr	r3, [sp, #32]	@ tmp193, xTotalHeapSize
 1086 0402 1360     		str	r3, [r2]	@ tmp193, xMinimumEverFreeBytesRemaining
ARM GAS  /tmp/ccX30Dk5.s 			page 29


 1087              	@ Source/FreeRTOS/portable/MemMang/heap_5.c:494:     xFreeBytesRemaining = xTotalHeapSize;
 494:Source/FreeRTOS/portable/MemMang/heap_5.c ****     xFreeBytesRemaining = xTotalHeapSize;
 1088              		.loc 1 494 25
 1089 0404 0E4A     		ldr	r2, .L52+20	@ tmp194,
 1090 0406 089B     		ldr	r3, [sp, #32]	@ tmp195, xTotalHeapSize
 1091 0408 1360     		str	r3, [r2]	@ tmp195, xFreeBytesRemaining
 1092              	@ Source/FreeRTOS/portable/MemMang/heap_5.c:497:     configASSERT( xTotalHeapSize );
 495:Source/FreeRTOS/portable/MemMang/heap_5.c **** 
 496:Source/FreeRTOS/portable/MemMang/heap_5.c ****     /* Check something was actually defined before it is accessed. */
 497:Source/FreeRTOS/portable/MemMang/heap_5.c ****     configASSERT( xTotalHeapSize );
 1093              		.loc 1 497 5
 1094 040a 089B     		ldr	r3, [sp, #32]	@ tmp196, xTotalHeapSize
 1095 040c 002B     		cmp	r3, #0	@ tmp196,
 1096 040e 05D1     		bne	.L51		@,
 1097              	.LBB8:
 1098              	@ Source/FreeRTOS/portable/MemMang/heap_5.c:497:     configASSERT( xTotalHeapSize );
 1099              		.loc 1 497 5 is_stmt 0 discriminator 1
 1100 0410 40F2F112 		movw	r2, #497	@,
 1101 0414 0649     		ldr	r1, .L52+4	@,
 1102 0416 0748     		ldr	r0, .L52+8	@,
 1103 0418 FFF7FEFF 		bl	printf		@
 1104              	.L51:
 1105              	.LBE8:
 1106              	@ Source/FreeRTOS/portable/MemMang/heap_5.c:500:     xBlockAllocatedBit = ( ( size_t ) 1 ) << ( ( s
 498:Source/FreeRTOS/portable/MemMang/heap_5.c **** 
 499:Source/FreeRTOS/portable/MemMang/heap_5.c ****     /* Work out the position of the top bit in a size_t variable. */
 500:Source/FreeRTOS/portable/MemMang/heap_5.c ****     xBlockAllocatedBit = ( ( size_t ) 1 ) << ( ( sizeof( size_t ) * heapBITS_PER_BYTE ) - 1 );
 1107              		.loc 1 500 24 is_stmt 1
 1108 041c 094B     		ldr	r3, .L52+24	@ tmp197,
 1109 041e 4FF00042 		mov	r2, #-2147483648	@ tmp198,
 1110 0422 1A60     		str	r2, [r3]	@ tmp198, xBlockAllocatedBit
 1111              	@ Source/FreeRTOS/portable/MemMang/heap_5.c:501: }
 501:Source/FreeRTOS/portable/MemMang/heap_5.c **** }
 1112              		.loc 1 501 1
 1113 0424 00BF     		nop	
 1114 0426 0BB0     		add	sp, sp, #44	@,,
 1115              	.LCFI10:
 1116              		.cfi_def_cfa_offset 4
 1117              		@ sp needed	@
 1118 0428 5DF804FB 		ldr	pc, [sp], #4	@
 1119              	.L53:
 1120              		.align	2
 1121              	.L52:
 1122 042c 08000000 		.word	pxEnd
 1123 0430 04000000 		.word	.LC0
 1124 0434 30000000 		.word	.LC1
 1125 0438 00000000 		.word	xStart
 1126 043c 10000000 		.word	xMinimumEverFreeBytesRemaining
 1127 0440 0C000000 		.word	xFreeBytesRemaining
 1128 0444 1C000000 		.word	xBlockAllocatedBit
 1129              		.cfi_endproc
 1130              	.LFE10:
 1131              		.size	vPortDefineHeapRegions, .-vPortDefineHeapRegions
 1132              		.align	1
 1133              		.global	vPortGetHeapStats
 1134              		.syntax unified
 1135              		.thumb
ARM GAS  /tmp/ccX30Dk5.s 			page 30


 1136              		.thumb_func
 1137              		.type	vPortGetHeapStats, %function
 1138              	vPortGetHeapStats:
 1139              	.LFB11:
 502:Source/FreeRTOS/portable/MemMang/heap_5.c **** /*-----------------------------------------------------------*/
 503:Source/FreeRTOS/portable/MemMang/heap_5.c **** 
 504:Source/FreeRTOS/portable/MemMang/heap_5.c **** void vPortGetHeapStats( HeapStats_t * pxHeapStats )
 505:Source/FreeRTOS/portable/MemMang/heap_5.c **** {
 1140              		.loc 1 505 1
 1141              		.cfi_startproc
 1142              		@ args = 0, pretend = 0, frame = 24
 1143              		@ frame_needed = 0, uses_anonymous_args = 0
 1144 0448 00B5     		push	{lr}	@
 1145              	.LCFI11:
 1146              		.cfi_def_cfa_offset 4
 1147              		.cfi_offset 14, -4
 1148 044a 87B0     		sub	sp, sp, #28	@,,
 1149              	.LCFI12:
 1150              		.cfi_def_cfa_offset 32
 1151 044c 0190     		str	r0, [sp, #4]	@ pxHeapStats, pxHeapStats
 1152              	@ Source/FreeRTOS/portable/MemMang/heap_5.c:507:     size_t xBlocks = 0, xMaxSize = 0, xMinSize = p
 506:Source/FreeRTOS/portable/MemMang/heap_5.c ****     BlockLink_t * pxBlock;
 507:Source/FreeRTOS/portable/MemMang/heap_5.c ****     size_t xBlocks = 0, xMaxSize = 0, xMinSize = portMAX_DELAY; /* portMAX_DELAY used as a portable
 1153              		.loc 1 507 12
 1154 044e 0023     		movs	r3, #0	@ tmp121,
 1155 0450 0493     		str	r3, [sp, #16]	@ tmp121, xBlocks
 1156              	@ Source/FreeRTOS/portable/MemMang/heap_5.c:507:     size_t xBlocks = 0, xMaxSize = 0, xMinSize = p
 1157              		.loc 1 507 25
 1158 0452 0023     		movs	r3, #0	@ tmp122,
 1159 0454 0393     		str	r3, [sp, #12]	@ tmp122, xMaxSize
 1160              	@ Source/FreeRTOS/portable/MemMang/heap_5.c:507:     size_t xBlocks = 0, xMaxSize = 0, xMinSize = p
 1161              		.loc 1 507 39
 1162 0456 4FF0FF33 		mov	r3, #-1	@ tmp123,
 1163 045a 0293     		str	r3, [sp, #8]	@ tmp123, xMinSize
 1164              	@ Source/FreeRTOS/portable/MemMang/heap_5.c:509:     vTaskSuspendAll();
 508:Source/FreeRTOS/portable/MemMang/heap_5.c **** 
 509:Source/FreeRTOS/portable/MemMang/heap_5.c ****     vTaskSuspendAll();
 1165              		.loc 1 509 5
 1166 045c FFF7FEFF 		bl	vTaskSuspendAll		@
 1167              	@ Source/FreeRTOS/portable/MemMang/heap_5.c:511:         pxBlock = xStart.pxNextFreeBlock;
 510:Source/FreeRTOS/portable/MemMang/heap_5.c ****     {
 511:Source/FreeRTOS/portable/MemMang/heap_5.c ****         pxBlock = xStart.pxNextFreeBlock;
 1168              		.loc 1 511 17
 1169 0460 234B     		ldr	r3, .L59	@ tmp124,
 1170 0462 1B68     		ldr	r3, [r3]	@ tmp125, xStart.pxNextFreeBlock
 1171 0464 0593     		str	r3, [sp, #20]	@ tmp125, pxBlock
 1172              	@ Source/FreeRTOS/portable/MemMang/heap_5.c:515:         if( pxBlock != NULL )
 512:Source/FreeRTOS/portable/MemMang/heap_5.c **** 
 513:Source/FreeRTOS/portable/MemMang/heap_5.c ****         /* pxBlock will be NULL if the heap has not been initialised.  The heap
 514:Source/FreeRTOS/portable/MemMang/heap_5.c ****          * is initialised automatically when the first allocation is made. */
 515:Source/FreeRTOS/portable/MemMang/heap_5.c ****         if( pxBlock != NULL )
 1173              		.loc 1 515 11
 1174 0466 059B     		ldr	r3, [sp, #20]	@ tmp126, pxBlock
 1175 0468 002B     		cmp	r3, #0	@ tmp126,
 1176 046a 1ED0     		beq	.L55		@,
 1177              	.L58:
 1178              	@ Source/FreeRTOS/portable/MemMang/heap_5.c:521:                 xBlocks++;
ARM GAS  /tmp/ccX30Dk5.s 			page 31


 516:Source/FreeRTOS/portable/MemMang/heap_5.c ****         {
 517:Source/FreeRTOS/portable/MemMang/heap_5.c ****             do
 518:Source/FreeRTOS/portable/MemMang/heap_5.c ****             {
 519:Source/FreeRTOS/portable/MemMang/heap_5.c ****                 /* Increment the number of blocks and record the largest block seen
 520:Source/FreeRTOS/portable/MemMang/heap_5.c ****                  * so far. */
 521:Source/FreeRTOS/portable/MemMang/heap_5.c ****                 xBlocks++;
 1179              		.loc 1 521 24
 1180 046c 049B     		ldr	r3, [sp, #16]	@ tmp128, xBlocks
 1181 046e 0133     		adds	r3, r3, #1	@ tmp127, tmp128,
 1182 0470 0493     		str	r3, [sp, #16]	@ tmp127, xBlocks
 1183              	@ Source/FreeRTOS/portable/MemMang/heap_5.c:523:                 if( pxBlock->xBlockSize > xMaxSize
 522:Source/FreeRTOS/portable/MemMang/heap_5.c **** 
 523:Source/FreeRTOS/portable/MemMang/heap_5.c ****                 if( pxBlock->xBlockSize > xMaxSize )
 1184              		.loc 1 523 28
 1185 0472 059B     		ldr	r3, [sp, #20]	@ tmp129, pxBlock
 1186 0474 5B68     		ldr	r3, [r3, #4]	@ _1, pxBlock_9->xBlockSize
 1187              	@ Source/FreeRTOS/portable/MemMang/heap_5.c:523:                 if( pxBlock->xBlockSize > xMaxSize
 1188              		.loc 1 523 19
 1189 0476 039A     		ldr	r2, [sp, #12]	@ tmp130, xMaxSize
 1190 0478 9A42     		cmp	r2, r3	@ tmp130, _1
 1191 047a 02D2     		bcs	.L56		@,
 1192              	@ Source/FreeRTOS/portable/MemMang/heap_5.c:525:                     xMaxSize = pxBlock->xBlockSize
 524:Source/FreeRTOS/portable/MemMang/heap_5.c ****                 {
 525:Source/FreeRTOS/portable/MemMang/heap_5.c ****                     xMaxSize = pxBlock->xBlockSize;
 1193              		.loc 1 525 30
 1194 047c 059B     		ldr	r3, [sp, #20]	@ tmp131, pxBlock
 1195 047e 5B68     		ldr	r3, [r3, #4]	@ tmp132, pxBlock_9->xBlockSize
 1196 0480 0393     		str	r3, [sp, #12]	@ tmp132, xMaxSize
 1197              	.L56:
 1198              	@ Source/FreeRTOS/portable/MemMang/heap_5.c:531:                 if( pxBlock->xBlockSize != 0 )
 526:Source/FreeRTOS/portable/MemMang/heap_5.c ****                 }
 527:Source/FreeRTOS/portable/MemMang/heap_5.c **** 
 528:Source/FreeRTOS/portable/MemMang/heap_5.c ****                 /* Heap five will have a zero sized block at the end of each
 529:Source/FreeRTOS/portable/MemMang/heap_5.c ****                  * each region - the block is only used to link to the next
 530:Source/FreeRTOS/portable/MemMang/heap_5.c ****                  * heap region so it not a real block. */
 531:Source/FreeRTOS/portable/MemMang/heap_5.c ****                 if( pxBlock->xBlockSize != 0 )
 1199              		.loc 1 531 28
 1200 0482 059B     		ldr	r3, [sp, #20]	@ tmp133, pxBlock
 1201 0484 5B68     		ldr	r3, [r3, #4]	@ _2, pxBlock_9->xBlockSize
 1202              	@ Source/FreeRTOS/portable/MemMang/heap_5.c:531:                 if( pxBlock->xBlockSize != 0 )
 1203              		.loc 1 531 19
 1204 0486 002B     		cmp	r3, #0	@ _2,
 1205 0488 07D0     		beq	.L57		@,
 1206              	@ Source/FreeRTOS/portable/MemMang/heap_5.c:533:                     if( pxBlock->xBlockSize < xMin
 532:Source/FreeRTOS/portable/MemMang/heap_5.c ****                 {
 533:Source/FreeRTOS/portable/MemMang/heap_5.c ****                     if( pxBlock->xBlockSize < xMinSize )
 1207              		.loc 1 533 32
 1208 048a 059B     		ldr	r3, [sp, #20]	@ tmp134, pxBlock
 1209 048c 5B68     		ldr	r3, [r3, #4]	@ _3, pxBlock_9->xBlockSize
 1210              	@ Source/FreeRTOS/portable/MemMang/heap_5.c:533:                     if( pxBlock->xBlockSize < xMin
 1211              		.loc 1 533 23
 1212 048e 029A     		ldr	r2, [sp, #8]	@ tmp135, xMinSize
 1213 0490 9A42     		cmp	r2, r3	@ tmp135, _3
 1214 0492 02D9     		bls	.L57		@,
 1215              	@ Source/FreeRTOS/portable/MemMang/heap_5.c:535:                         xMinSize = pxBlock->xBlock
 534:Source/FreeRTOS/portable/MemMang/heap_5.c ****                     {
 535:Source/FreeRTOS/portable/MemMang/heap_5.c ****                         xMinSize = pxBlock->xBlockSize;
ARM GAS  /tmp/ccX30Dk5.s 			page 32


 1216              		.loc 1 535 34
 1217 0494 059B     		ldr	r3, [sp, #20]	@ tmp136, pxBlock
 1218 0496 5B68     		ldr	r3, [r3, #4]	@ tmp137, pxBlock_9->xBlockSize
 1219 0498 0293     		str	r3, [sp, #8]	@ tmp137, xMinSize
 1220              	.L57:
 1221              	@ Source/FreeRTOS/portable/MemMang/heap_5.c:541:                 pxBlock = pxBlock->pxNextFreeBlock
 536:Source/FreeRTOS/portable/MemMang/heap_5.c ****                     }
 537:Source/FreeRTOS/portable/MemMang/heap_5.c ****                 }
 538:Source/FreeRTOS/portable/MemMang/heap_5.c **** 
 539:Source/FreeRTOS/portable/MemMang/heap_5.c ****                 /* Move to the next block in the chain until the last block is
 540:Source/FreeRTOS/portable/MemMang/heap_5.c ****                  * reached. */
 541:Source/FreeRTOS/portable/MemMang/heap_5.c ****                 pxBlock = pxBlock->pxNextFreeBlock;
 1222              		.loc 1 541 25
 1223 049a 059B     		ldr	r3, [sp, #20]	@ tmp138, pxBlock
 1224 049c 1B68     		ldr	r3, [r3]	@ tmp139, pxBlock_9->pxNextFreeBlock
 1225 049e 0593     		str	r3, [sp, #20]	@ tmp139, pxBlock
 1226              	@ Source/FreeRTOS/portable/MemMang/heap_5.c:542:             } while( pxBlock != pxEnd );
 542:Source/FreeRTOS/portable/MemMang/heap_5.c ****             } while( pxBlock != pxEnd );
 1227              		.loc 1 542 30
 1228 04a0 144B     		ldr	r3, .L59+4	@ tmp140,
 1229 04a2 1B68     		ldr	r3, [r3]	@ pxEnd.35_4, pxEnd
 1230              	@ Source/FreeRTOS/portable/MemMang/heap_5.c:542:             } while( pxBlock != pxEnd );
 1231              		.loc 1 542 13
 1232 04a4 059A     		ldr	r2, [sp, #20]	@ tmp141, pxBlock
 1233 04a6 9A42     		cmp	r2, r3	@ tmp141, pxEnd.35_4
 1234 04a8 E0D1     		bne	.L58		@,
 1235              	.L55:
 1236              	@ Source/FreeRTOS/portable/MemMang/heap_5.c:545:     ( void ) xTaskResumeAll();
 543:Source/FreeRTOS/portable/MemMang/heap_5.c ****         }
 544:Source/FreeRTOS/portable/MemMang/heap_5.c ****     }
 545:Source/FreeRTOS/portable/MemMang/heap_5.c ****     ( void ) xTaskResumeAll();
 1237              		.loc 1 545 14
 1238 04aa FFF7FEFF 		bl	xTaskResumeAll		@
 1239              	@ Source/FreeRTOS/portable/MemMang/heap_5.c:547:     pxHeapStats->xSizeOfLargestFreeBlockInBytes = 
 546:Source/FreeRTOS/portable/MemMang/heap_5.c **** 
 547:Source/FreeRTOS/portable/MemMang/heap_5.c ****     pxHeapStats->xSizeOfLargestFreeBlockInBytes = xMaxSize;
 1240              		.loc 1 547 49
 1241 04ae 019B     		ldr	r3, [sp, #4]	@ tmp142, pxHeapStats
 1242 04b0 039A     		ldr	r2, [sp, #12]	@ tmp143, xMaxSize
 1243 04b2 5A60     		str	r2, [r3, #4]	@ tmp143, pxHeapStats_29(D)->xSizeOfLargestFreeBlockInBytes
 1244              	@ Source/FreeRTOS/portable/MemMang/heap_5.c:548:     pxHeapStats->xSizeOfSmallestFreeBlockInBytes =
 548:Source/FreeRTOS/portable/MemMang/heap_5.c ****     pxHeapStats->xSizeOfSmallestFreeBlockInBytes = xMinSize;
 1245              		.loc 1 548 50
 1246 04b4 019B     		ldr	r3, [sp, #4]	@ tmp144, pxHeapStats
 1247 04b6 029A     		ldr	r2, [sp, #8]	@ tmp145, xMinSize
 1248 04b8 9A60     		str	r2, [r3, #8]	@ tmp145, pxHeapStats_29(D)->xSizeOfSmallestFreeBlockInBytes
 1249              	@ Source/FreeRTOS/portable/MemMang/heap_5.c:549:     pxHeapStats->xNumberOfFreeBlocks = xBlocks;
 549:Source/FreeRTOS/portable/MemMang/heap_5.c ****     pxHeapStats->xNumberOfFreeBlocks = xBlocks;
 1250              		.loc 1 549 38
 1251 04ba 019B     		ldr	r3, [sp, #4]	@ tmp146, pxHeapStats
 1252 04bc 049A     		ldr	r2, [sp, #16]	@ tmp147, xBlocks
 1253 04be DA60     		str	r2, [r3, #12]	@ tmp147, pxHeapStats_29(D)->xNumberOfFreeBlocks
 1254              	@ Source/FreeRTOS/portable/MemMang/heap_5.c:551:     taskENTER_CRITICAL();
 550:Source/FreeRTOS/portable/MemMang/heap_5.c **** 
 551:Source/FreeRTOS/portable/MemMang/heap_5.c ****     taskENTER_CRITICAL();
 1255              		.loc 1 551 5
 1256 04c0 FFF7FEFF 		bl	vPortEnterCritical		@
ARM GAS  /tmp/ccX30Dk5.s 			page 33


 1257              	@ Source/FreeRTOS/portable/MemMang/heap_5.c:553:         pxHeapStats->xAvailableHeapSpaceInBytes = 
 552:Source/FreeRTOS/portable/MemMang/heap_5.c ****     {
 553:Source/FreeRTOS/portable/MemMang/heap_5.c ****         pxHeapStats->xAvailableHeapSpaceInBytes = xFreeBytesRemaining;
 1258              		.loc 1 553 49
 1259 04c4 0C4B     		ldr	r3, .L59+8	@ tmp148,
 1260 04c6 1A68     		ldr	r2, [r3]	@ xFreeBytesRemaining.36_5, xFreeBytesRemaining
 1261 04c8 019B     		ldr	r3, [sp, #4]	@ tmp149, pxHeapStats
 1262 04ca 1A60     		str	r2, [r3]	@ xFreeBytesRemaining.36_5, pxHeapStats_29(D)->xAvailableHeapSpaceInBytes
 1263              	@ Source/FreeRTOS/portable/MemMang/heap_5.c:554:         pxHeapStats->xNumberOfSuccessfulAllocation
 554:Source/FreeRTOS/portable/MemMang/heap_5.c ****         pxHeapStats->xNumberOfSuccessfulAllocations = xNumberOfSuccessfulAllocations;
 1264              		.loc 1 554 53
 1265 04cc 0B4B     		ldr	r3, .L59+12	@ tmp150,
 1266 04ce 1A68     		ldr	r2, [r3]	@ xNumberOfSuccessfulAllocations.37_6, xNumberOfSuccessfulAllocations
 1267 04d0 019B     		ldr	r3, [sp, #4]	@ tmp151, pxHeapStats
 1268 04d2 5A61     		str	r2, [r3, #20]	@ xNumberOfSuccessfulAllocations.37_6, pxHeapStats_29(D)->xNumberOfSuccessfulAll
 1269              	@ Source/FreeRTOS/portable/MemMang/heap_5.c:555:         pxHeapStats->xNumberOfSuccessfulFrees = xN
 555:Source/FreeRTOS/portable/MemMang/heap_5.c ****         pxHeapStats->xNumberOfSuccessfulFrees = xNumberOfSuccessfulFrees;
 1270              		.loc 1 555 47
 1271 04d4 0A4B     		ldr	r3, .L59+16	@ tmp152,
 1272 04d6 1A68     		ldr	r2, [r3]	@ xNumberOfSuccessfulFrees.38_7, xNumberOfSuccessfulFrees
 1273 04d8 019B     		ldr	r3, [sp, #4]	@ tmp153, pxHeapStats
 1274 04da 9A61     		str	r2, [r3, #24]	@ xNumberOfSuccessfulFrees.38_7, pxHeapStats_29(D)->xNumberOfSuccessfulFrees
 1275              	@ Source/FreeRTOS/portable/MemMang/heap_5.c:556:         pxHeapStats->xMinimumEverFreeBytesRemainin
 556:Source/FreeRTOS/portable/MemMang/heap_5.c ****         pxHeapStats->xMinimumEverFreeBytesRemaining = xMinimumEverFreeBytesRemaining;
 1276              		.loc 1 556 53
 1277 04dc 094B     		ldr	r3, .L59+20	@ tmp154,
 1278 04de 1A68     		ldr	r2, [r3]	@ xMinimumEverFreeBytesRemaining.39_8, xMinimumEverFreeBytesRemaining
 1279 04e0 019B     		ldr	r3, [sp, #4]	@ tmp155, pxHeapStats
 1280 04e2 1A61     		str	r2, [r3, #16]	@ xMinimumEverFreeBytesRemaining.39_8, pxHeapStats_29(D)->xMinimumEverFreeBytesR
 1281              	@ Source/FreeRTOS/portable/MemMang/heap_5.c:558:     taskEXIT_CRITICAL();
 557:Source/FreeRTOS/portable/MemMang/heap_5.c ****     }
 558:Source/FreeRTOS/portable/MemMang/heap_5.c ****     taskEXIT_CRITICAL();
 1282              		.loc 1 558 5
 1283 04e4 FFF7FEFF 		bl	vPortExitCritical		@
 1284              	@ Source/FreeRTOS/portable/MemMang/heap_5.c:559: }
 559:Source/FreeRTOS/portable/MemMang/heap_5.c **** }
 1285              		.loc 1 559 1
 1286 04e8 00BF     		nop	
 1287 04ea 07B0     		add	sp, sp, #28	@,,
 1288              	.LCFI13:
 1289              		.cfi_def_cfa_offset 4
 1290              		@ sp needed	@
 1291 04ec 5DF804FB 		ldr	pc, [sp], #4	@
 1292              	.L60:
 1293              		.align	2
 1294              	.L59:
 1295 04f0 00000000 		.word	xStart
 1296 04f4 08000000 		.word	pxEnd
 1297 04f8 0C000000 		.word	xFreeBytesRemaining
 1298 04fc 14000000 		.word	xNumberOfSuccessfulAllocations
 1299 0500 18000000 		.word	xNumberOfSuccessfulFrees
 1300 0504 10000000 		.word	xMinimumEverFreeBytesRemaining
 1301              		.cfi_endproc
 1302              	.LFE11:
 1303              		.size	vPortGetHeapStats, .-vPortGetHeapStats
 1304              	.Letext0:
 1305              		.file 2 "/home/hpf/Compile_chain/gcc-arm-none-eabi-10.3-2021.10/lib/gcc/arm-none-eabi/10.3.1/inclu
ARM GAS  /tmp/ccX30Dk5.s 			page 34


 1306              		.file 3 "/home/hpf/Compile_chain/gcc-arm-none-eabi-10.3-2021.10/arm-none-eabi/include/machine/_def
 1307              		.file 4 "/home/hpf/Compile_chain/gcc-arm-none-eabi-10.3-2021.10/arm-none-eabi/include/sys/_stdint.
 1308              		.file 5 "./Source/FreeRTOS/portable/GCC/ARM_CM3/portmacro.h"
 1309              		.file 6 "./Source/FreeRTOS/include/portable.h"
 1310              		.file 7 "<built-in>"